081110 143306 12197 INFO dfs.DataNode$DataXceiver: Receiving block blk_3661659357649069492 src: /10.251.26.131:37240 dest: /10.251.26.131:50010081110 143306 12229 INFO dfs.DataNode$DataXceiver: Receiving block blk_3661659357649069492 src: /10.251.26.131:33138 dest: /10.251.26.131:50010081110 143306 12347 INFO dfs.DataNode$DataXceiver: Receiving block blk_3661659357649069492 src: /10.251.105.189:42345 dest: /10.251.105.189:50010081110 143306 30 INFO dfs.FSNamesystem: BLOCK* NameSystem.allocateBlock: /user/root/sortrand2/_temporary/_task_200811101024_0003_r_000345_0/part-00345. blk_3661659357649069492081110 143332 12348 INFO dfs.DataNode$PacketResponder: PacketResponder 0 for block blk_3661659357649069492 terminating081110 143332 12348 INFO dfs.DataNode$PacketResponder: Received block blk_3661659357649069492 of size 67108864 from /10.251.105.189081110 143332 33 INFO dfs.FSNamesystem: BLOCK* NameSystem.addStoredBlock: blockMap updated: 10.251.214.112:50010 is added to blk_3661659357649069492 size 67108864081110 143333 12198 INFO dfs.DataNode$PacketResponder: PacketResponder 2 for block blk_3661659357649069492 terminating081110 143333 12198 INFO dfs.DataNode$PacketResponder: Received block blk_3661659357649069492 of size 67108864 from /10.251.26.131081110 143333 12230 INFO dfs.DataNode$PacketResponder: PacketResponder 1 for block blk_3661659357649069492 terminating081110 143333 12230 INFO dfs.DataNode$PacketResponder: Received block blk_3661659357649069492 of size 67108864 from /10.251.26.131081110 143333 28 INFO dfs.FSNamesystem: BLOCK* NameSystem.addStoredBlock: blockMap updated: 10.251.26.131:50010 is added to blk_3661659357649069492 size 67108864081110 143333 33 INFO dfs.FSNamesystem: BLOCK* NameSystem.addStoredBlock: blockMap updated: 10.251.105.189:50010 is added to blk_3661659357649069492 size 67108864081110 210134 28 INFO dfs.FSNamesystem: BLOCK* NameSystem.delete: blk_3661659357649069492 is added to invalidSet of 10.251.105.189:50010081110 210134 28 INFO dfs.FSNamesystem: BLOCK* NameSystem.delete: blk_3661659357649069492 is added to invalidSet of 10.251.214.112:50010081110 210134 28 INFO dfs.FSNamesystem: BLOCK* NameSystem.delete: blk_3661659357649069492 is added to invalidSet of 10.251.26.131:50010081110 210548 19 INFO dfs.FSDataset: Deleting block blk_3661659357649069492 file /mnt/hadoop/dfs/data/current/subdir47/blk_3661659357649069492081110 210554 18 INFO dfs.FSDataset: Deleting block blk_3661659357649069492 file /mnt/hadoop/dfs/data/current/subdir24/blk_3661659357649069492081110 210604 19 INFO dfs.FSDataset: Deleting block blk_3661659357649069492 file /mnt/hadoop/dfs/data/current/subdir21/blk_3661659357649069492081111 101037 26006 INFO dfs.DataNode$DataXceiver: Receiving block blk_7677148209645378526 src: /10.250.14.224:53485 dest: /10.250.14.224:50010081111 101037 26381 INFO dfs.DataNode$DataXceiver: Receiving block blk_7677148209645378526 src: /10.250.14.224:41383 dest: /10.250.14.224:50010081111 101037 26381 INFO dfs.DataNode$DataXceiver: Receiving block blk_7677148209645378526 src: /10.251.194.102:55907 dest: /10.251.194.102:50010081111 101037 27 INFO dfs.FSNamesystem: BLOCK* NameSystem.allocateBlock: /user/root/randtxt9/_temporary/_task_200811101024_0016_m_000239_0/part-00239. blk_7677148209645378526081111 101058 26007 INFO dfs.DataNode$PacketResponder: PacketResponder 2 for block blk_7677148209645378526 terminating081111 101058 26007 INFO dfs.DataNode$PacketResponder: Received block blk_7677148209645378526 of size 67108864 from /10.250.14.224081111 101058 26382 INFO dfs.DataNode$PacketResponder: PacketResponder 0 for block blk_7677148209645378526 terminating081111 101058 26382 INFO dfs.DataNode$PacketResponder: PacketResponder 1 for block blk_7677148209645378526 terminating081111 101058 26382 INFO dfs.DataNode$PacketResponder: Received block blk_7677148209645378526 of size 67108864 from /10.250.14.224081111 101058 26382 INFO dfs.DataNode$PacketResponder: Received block blk_7677148209645378526 of size 67108864 from /10.251.194.102081111 101058 31 INFO dfs.FSNamesystem: BLOCK* NameSystem.addStoredBlock: blockMap updated: 10.251.194.102:50010 is added to blk_7677148209645378526 size 67108864081111 101058 34 INFO dfs.FSNamesystem: BLOCK* NameSystem.addStoredBlock: blockMap updated: 10.250.14.224:50010 is added to blk_7677148209645378526 size 67108864081111 101058 35 INFO dfs.FSNamesystem: BLOCK* NameSystem.addStoredBlock: blockMap updated: 10.250.17.225:50010 is added to blk_7677148209645378526 size 67108864081111 110428 26 INFO dfs.FSNamesystem: BLOCK* NameSystem.delete: blk_7677148209645378526 is added to invalidSet of 10.250.14.224:50010081111 110428 26 INFO dfs.FSNamesystem: BLOCK* NameSystem.delete: blk_7677148209645378526 is added to invalidSet of 10.250.17.225:50010081111 110428 26 INFO dfs.FSNamesystem: BLOCK* NameSystem.delete: blk_7677148209645378526 is added to invalidSet of 10.251.194.102:50010081111 110616 19 INFO dfs.FSDataset: Deleting block blk_7677148209645378526 file /mnt/hadoop/dfs/data/current/subdir40/blk_7677148209645378526081111 110619 19 INFO dfs.FSDataset: Deleting block blk_7677148209645378526 file /mnt/hadoop/dfs/data/current/subdir42/blk_7677148209645378526081111 110638 19 INFO dfs.FSDataset: Deleting block blk_7677148209645378526 file /mnt/hadoop/dfs/data/current/subdir13/blk_7677148209645378526081111 040738 19632 INFO dfs.DataNode$DataXceiver: Receiving block blk_-4158341663737301353 src: /10.251.110.196:45842 dest: /10.251.110.196:50010081111 040738 32 INFO dfs.FSNamesystem: BLOCK* NameSystem.allocateBlock: /user/root/randtxt4/_temporary/_task_200811101024_0010_m_001053_0/part-01053. blk_-4158341663737301353081111 040739 19549 INFO dfs.DataNode$DataXceiver: Receiving block blk_-4158341663737301353 src: /10.251.67.225:39068 dest: /10.251.67.225:50010081111 040739 19872 INFO dfs.DataNode$DataXceiver: Receiving block blk_-4158341663737301353 src: /10.251.110.196:54228 dest: /10.251.110.196:50010081111 040809 19552 INFO dfs.DataNode$PacketResponder: PacketResponder 0 for block blk_-4158341663737301353 terminating081111 040809 19552 INFO dfs.DataNode$PacketResponder: Received block blk_-4158341663737301353 of size 67108864 from /10.251.67.225081111 040809 19633 INFO dfs.DataNode$PacketResponder: PacketResponder 2 for block blk_-4158341663737301353 terminating081111 040809 19633 INFO dfs.DataNode$PacketResponder: Received block blk_-4158341663737301353 of size 67108864 from /10.251.110.196081111 040809 19873 INFO dfs.DataNode$PacketResponder: PacketResponder 1 for block blk_-4158341663737301353 terminating081111 040809 19873 INFO dfs.DataNode$PacketResponder: Received block blk_-4158341663737301353 of size 67108864 from /10.251.110.196081111 040809 28 INFO dfs.FSNamesystem: BLOCK* NameSystem.addStoredBlock: blockMap updated: 10.251.66.192:50010 is added to blk_-4158341663737301353 size 67108864081111 040809 30 INFO dfs.FSNamesystem: BLOCK* NameSystem.addStoredBlock: blockMap updated: 10.251.67.225:50010 is added to blk_-4158341663737301353 size 67108864081111 040809 35 INFO dfs.FSNamesystem: BLOCK* NameSystem.addStoredBlock: blockMap updated: 10.251.110.196:50010 is added to blk_-4158341663737301353 size 67108864081109 233702 28 INFO dfs.FSNamesystem: BLOCK* NameSystem.allocateBlock: /user/root/sortrand/_temporary/_task_200811092030_0002_r_000062_0/part-00062. blk_-8457864884249634995081109 233702 4069 INFO dfs.DataNode$DataXceiver: Receiving block blk_-8457864884249634995 src: /10.251.215.50:34630 dest: /10.251.215.50:50010081109 233703 4020 INFO dfs.DataNode$DataXceiver: Receiving block blk_-8457864884249634995 src: /10.251.215.50:46328 dest: /10.251.215.50:50010081109 233703 4092 INFO dfs.DataNode$DataXceiver: Receiving block blk_-8457864884249634995 src: /10.251.42.16:53596 dest: /10.251.42.16:50010081109 233752 32 INFO dfs.FSNamesystem: BLOCK* NameSystem.addStoredBlock: blockMap updated: 10.251.215.50:50010 is added to blk_-8457864884249634995 size 67108864081109 233752 33 INFO dfs.FSNamesystem: BLOCK* NameSystem.addStoredBlock: blockMap updated: 10.251.42.16:50010 is added to blk_-8457864884249634995 size 67108864081109 233752 34 INFO dfs.FSNamesystem: BLOCK* NameSystem.addStoredBlock: blockMap updated: 10.251.42.84:50010 is added to blk_-8457864884249634995 size 67108864081109 233752 4021 INFO dfs.DataNode$PacketResponder: PacketResponder 1 for block blk_-8457864884249634995 terminating081109 233752 4021 INFO dfs.DataNode$PacketResponder: Received block blk_-8457864884249634995 of size 67108864 from /10.251.215.50081109 233752 4070 INFO dfs.DataNode$PacketResponder: PacketResponder 2 for block blk_-8457864884249634995 terminating081109 233752 4070 INFO dfs.DataNode$PacketResponder: Received block blk_-8457864884249634995 of size 67108864 from /10.251.215.50081109 233752 4093 INFO dfs.DataNode$PacketResponder: PacketResponder 0 for block blk_-8457864884249634995 terminating081109 233752 4093 INFO dfs.DataNode$PacketResponder: Received block blk_-8457864884249634995 of size 67108864 from /10.251.42.16081110 103130 30 INFO dfs.FSNamesystem: BLOCK* NameSystem.delete: blk_-8457864884249634995 is added to invalidSet of 10.251.215.50:50010081110 103130 30 INFO dfs.FSNamesystem: BLOCK* NameSystem.delete: blk_-8457864884249634995 is added to invalidSet of 10.251.42.16:50010081110 103130 30 INFO dfs.FSNamesystem: BLOCK* NameSystem.delete: blk_-8457864884249634995 is added to invalidSet of 10.251.42.84:50010081110 103248 19 INFO dfs.FSDataset: Deleting block blk_-8457864884249634995 file /mnt/hadoop/dfs/data/current/subdir15/blk_-8457864884249634995081110 103340 19 INFO dfs.FSDataset: Deleting block blk_-8457864884249634995 file /mnt/hadoop/dfs/data/current/subdir27/blk_-8457864884249634995081110 103532 19 INFO dfs.FSDataset: Deleting block blk_-8457864884249634995 file /mnt/hadoop/dfs/data/current/subdir21/blk_-8457864884249634995081110 120212 10545 INFO dfs.DataNode$DataXceiver: Receiving block blk_2955897536941133652 src: /10.251.107.98:50387 dest: /10.251.107.98:50010081110 120212 10617 INFO dfs.DataNode$DataXceiver: Receiving block blk_2955897536941133652 src: /10.251.107.98:46525 dest: /10.251.107.98:50010081110 120212 30 INFO dfs.FSNamesystem: BLOCK* NameSystem.allocateBlock: /user/root/randtxt2/_temporary/_task_200811101024_0002_m_000968_0/part-00968. blk_2955897536941133652081110 120213 10770 INFO dfs.DataNode$DataXceiver: Receiving block blk_2955897536941133652 src: /10.251.109.209:55052 dest: /10.251.109.209:50010081110 120241 10547 INFO dfs.DataNode$PacketResponder: PacketResponder 1 for block blk_2955897536941133652 terminating081110 120241 10547 INFO dfs.DataNode$PacketResponder: Received block blk_2955897536941133652 of size 67108864 from /10.251.107.98081110 120241 10618 INFO dfs.DataNode$PacketResponder: PacketResponder 2 for block blk_2955897536941133652 terminating081110 120241 10618 INFO dfs.DataNode$PacketResponder: Received block blk_2955897536941133652 of size 67108864 from /10.251.107.98081110 120241 10771 INFO dfs.DataNode$PacketResponder: PacketResponder 0 for block blk_2955897536941133652 terminating081110 120241 10771 INFO dfs.DataNode$PacketResponder: Received block blk_2955897536941133652 of size 67108864 from /10.251.109.209081110 120241 28 INFO dfs.FSNamesystem: BLOCK* NameSystem.addStoredBlock: blockMap updated: 10.251.109.209:50010 is added to blk_2955897536941133652 size 67108864081110 120241 30 INFO dfs.FSNamesystem: BLOCK* NameSystem.addStoredBlock: blockMap updated: 10.251.42.191:50010 is added to blk_2955897536941133652 size 67108864081110 120241 32 INFO dfs.FSNamesystem: BLOCK* NameSystem.addStoredBlock: blockMap updated: 10.251.107.98:50010 is added to blk_2955897536941133652 size 67108864081110 124930 13 INFO dfs.DataBlockScanner: Verification succeeded for blk_2955897536941133652081110 180843 13705 INFO dfs.DataNode$DataXceiver: 10.251.109.209:50010 Served block blk_2955897536941133652 to /10.251.109.209081110 181343 14001 INFO dfs.DataNode$DataXceiver: 10.251.42.191:50010 Served block blk_2955897536941133652 to /10.250.11.53081110 181526 14013 WARN dfs.DataNode$DataXceiver: 10.251.42.191:50010:Got exception while serving blk_2955897536941133652 to /10.251.107.242:081111 010548 17293 INFO dfs.DataNode$DataXceiver: 10.251.109.209:50010 Served block blk_2955897536941133652 to /10.251.109.209081111 011137 17462 INFO dfs.DataNode$DataXceiver: 10.251.42.191:50010 Served block blk_2955897536941133652 to /10.250.11.53081111 011249 17302 WARN dfs.DataNode$DataXceiver: 10.251.107.98:50010:Got exception while serving blk_2955897536941133652 to /10.251.107.98:081111 023023 27 INFO dfs.FSNamesystem: BLOCK* NameSystem.delete: blk_2955897536941133652 is added to invalidSet of 10.251.107.98:50010081111 023023 27 INFO dfs.FSNamesystem: BLOCK* NameSystem.delete: blk_2955897536941133652 is added to invalidSet of 10.251.109.209:50010081111 023023 27 INFO dfs.FSNamesystem: BLOCK* NameSystem.delete: blk_2955897536941133652 is added to invalidSet of 10.251.42.191:50010081111 023234 19 INFO dfs.FSDataset: Deleting block blk_2955897536941133652 file /mnt/hadoop/dfs/data/current/subdir40/blk_2955897536941133652081111 023300 19 INFO dfs.FSDataset: Deleting block blk_2955897536941133652 file /mnt/hadoop/dfs/data/current/subdir0/blk_2955897536941133652081111 023306 19 INFO dfs.FSDataset: Deleting block blk_2955897536941133652 file /mnt/hadoop/dfs/data/current/subdir62/blk_2955897536941133652081110 115244 10337 INFO dfs.DataNode$DataXceiver: Receiving block blk_4928636158893524213 src: /10.251.30.6:43594 dest: /10.251.30.6:50010081110 115244 33 INFO dfs.FSNamesystem: BLOCK* NameSystem.allocateBlock: /user/root/randtxt2/_temporary/_task_200811101024_0002_m_000468_0/part-00468. blk_4928636158893524213081110 115245 10531 INFO dfs.DataNode$DataXceiver: Receiving block blk_4928636158893524213 src: /10.251.30.6:51815 dest: /10.251.30.6:50010081110 115246 10553 INFO dfs.DataNode$DataXceiver: Receiving block blk_4928636158893524213 src: /10.251.90.64:47836 dest: /10.251.90.64:50010081110 115327 10554 INFO dfs.DataNode$PacketResponder: PacketResponder 0 for block blk_4928636158893524213 terminating081110 115327 10554 INFO dfs.DataNode$PacketResponder: Received block blk_4928636158893524213 of size 67108864 from /10.251.90.64081110 115327 29 INFO dfs.FSNamesystem: BLOCK* NameSystem.addStoredBlock: blockMap updated: 10.251.30.6:50010 is added to blk_4928636158893524213 size 67108864081110 115327 35 INFO dfs.FSNamesystem: BLOCK* NameSystem.addStoredBlock: blockMap updated: 10.251.90.64:50010 is added to blk_4928636158893524213 size 67108864081110 115328 10338 INFO dfs.DataNode$PacketResponder: PacketResponder 2 for block blk_4928636158893524213 terminating081110 115328 10338 INFO dfs.DataNode$PacketResponder: Received block blk_4928636158893524213 of size 67108864 from /10.251.30.6081110 115328 10532 INFO dfs.DataNode$PacketResponder: PacketResponder 1 for block blk_4928636158893524213 terminating081110 115328 10532 INFO dfs.DataNode$PacketResponder: Received block blk_4928636158893524213 of size 67108864 from /10.251.30.6081110 115328 31 INFO dfs.FSNamesystem: BLOCK* NameSystem.addStoredBlock: blockMap updated: 10.251.215.16:50010 is added to blk_4928636158893524213 size 67108864081110 171206 13500 INFO dfs.DataNode$DataXceiver: 10.251.90.64:50010 Served block blk_4928636158893524213 to /10.251.203.179081110 171234 13513 INFO dfs.DataNode$DataXceiver: 10.251.90.64:50010 Served block blk_4928636158893524213 to /10.251.90.64081110 171244 13444 WARN dfs.DataNode$DataXceiver: 10.251.30.6:50010:Got exception while serving blk_4928636158893524213 to /10.251.111.80:081111 000752 16918 INFO dfs.DataNode$DataXceiver: 10.251.90.64:50010 Served block blk_4928636158893524213 to /10.251.203.179081111 000941 17298 WARN dfs.DataNode$DataXceiver: 10.251.215.16:50010:Got exception while serving blk_4928636158893524213 to /10.251.111.80:081111 000959 17299 INFO dfs.DataNode$DataXceiver: 10.251.215.16:50010 Served block blk_4928636158893524213 to /10.251.215.16081111 023016 27 INFO dfs.FSNamesystem: BLOCK* NameSystem.delete: blk_4928636158893524213 is added to invalidSet of 10.251.215.16:50010081111 023016 27 INFO dfs.FSNamesystem: BLOCK* NameSystem.delete: blk_4928636158893524213 is added to invalidSet of 10.251.30.6:50010081111 023016 27 INFO dfs.FSNamesystem: BLOCK* NameSystem.delete: blk_4928636158893524213 is added to invalidSet of 10.251.90.64:50010081111 023252 19 INFO dfs.FSDataset: Deleting block blk_4928636158893524213 file /mnt/hadoop/dfs/data/current/subdir51/blk_4928636158893524213081111 023304 19 INFO dfs.FSDataset: Deleting block blk_4928636158893524213 file /mnt/hadoop/dfs/data/current/subdir17/blk_4928636158893524213081111 023308 18 INFO dfs.FSDataset: Deleting block blk_4928636158893524213 file /mnt/hadoop/dfs/data/current/subdir47/blk_4928636158893524213081111 071836 23001 INFO dfs.DataNode$DataXceiver: Receiving block blk_-5957739034847094544 src: /10.251.107.19:58265 dest: /10.251.107.19:50010081111 071836 23299 INFO dfs.DataNode$DataXceiver: Receiving block blk_-5957739034847094544 src: /10.251.107.19:36757 dest: /10.251.107.19:50010081111 071836 34 INFO dfs.FSNamesystem: BLOCK* NameSystem.allocateBlock: /user/root/rand6/_temporary/_task_200811101024_0013_m_000862_0/part-00862. blk_-5957739034847094544081111 071837 23349 INFO dfs.DataNode$DataXceiver: Receiving block blk_-5957739034847094544 src: /10.251.125.237:59971 dest: /10.251.125.237:50010081111 071924 23002 INFO dfs.DataNode$PacketResponder: PacketResponder 1 for block blk_-5957739034847094544 terminating081111 071924 23002 INFO dfs.DataNode$PacketResponder: Received block blk_-5957739034847094544 of size 67108864 from /10.251.107.19081111 071924 23302 INFO dfs.DataNode$PacketResponder: PacketResponder 2 for block blk_-5957739034847094544 terminating081111 071924 23302 INFO dfs.DataNode$PacketResponder: Received block blk_-5957739034847094544 of size 67108864 from /10.251.107.19081111 071924 23350 INFO dfs.DataNode$PacketResponder: PacketResponder 0 for block blk_-5957739034847094544 terminating081111 071924 23350 INFO dfs.DataNode$PacketResponder: Received block blk_-5957739034847094544 of size 67108864 from /10.251.125.237081111 071924 29 INFO dfs.FSNamesystem: BLOCK* NameSystem.addStoredBlock: blockMap updated: 10.251.107.19:50010 is added to blk_-5957739034847094544 size 67108864081111 071924 33 INFO dfs.FSNamesystem: BLOCK* NameSystem.addStoredBlock: blockMap updated: 10.251.66.3:50010 is added to blk_-5957739034847094544 size 67108864081111 071924 34 INFO dfs.FSNamesystem: BLOCK* NameSystem.addStoredBlock: blockMap updated: 10.251.125.237:50010 is added to blk_-5957739034847094544 size 67108864081111 085916 27 INFO dfs.FSNamesystem: BLOCK* NameSystem.delete: blk_-5957739034847094544 is added to invalidSet of 10.251.107.19:50010081111 085916 27 INFO dfs.FSNamesystem: BLOCK* NameSystem.delete: blk_-5957739034847094544 is added to invalidSet of 10.251.125.237:50010081111 085916 27 INFO dfs.FSNamesystem: BLOCK* NameSystem.delete: blk_-5957739034847094544 is added to invalidSet of 10.251.66.3:50010081111 090057 19 INFO dfs.FSDataset: Deleting block blk_-5957739034847094544 file /mnt/hadoop/dfs/data/current/subdir52/blk_-5957739034847094544081111 090119 19 INFO dfs.FSDataset: Deleting block blk_-5957739034847094544 file /mnt/hadoop/dfs/data/current/subdir8/blk_-5957739034847094544081111 090121 19 INFO dfs.FSDataset: Deleting block blk_-5957739034847094544 file /mnt/hadoop/dfs/data/current/subdir42/blk_-5957739034847094544081111 032124 18600 INFO dfs.DataNode$DataXceiver: Receiving block blk_-4948227267596705326 src: /10.251.38.214:47162 dest: /10.251.38.214:50010081111 032124 18615 INFO dfs.DataNode$DataXceiver: Receiving block blk_-4948227267596705326 src: /10.251.194.129:39374 dest: /10.251.194.129:50010081111 032124 18739 INFO dfs.DataNode$DataXceiver: Receiving block blk_-4948227267596705326 src: /10.251.194.129:53227 dest: /10.251.194.129:50010081111 032124 33 INFO dfs.FSNamesystem: BLOCK* NameSystem.allocateBlock: /user/root/rand4/_temporary/_task_200811101024_0009_m_001572_0/part-01572. blk_-4948227267596705326081111 032157 18602 INFO dfs.DataNode$PacketResponder: PacketResponder 0 for block blk_-4948227267596705326 terminating081111 032157 18602 INFO dfs.DataNode$PacketResponder: Received block blk_-4948227267596705326 of size 67108864 from /10.251.38.214081111 032157 18616 INFO dfs.DataNode$PacketResponder: PacketResponder 1 for block blk_-4948227267596705326 terminating081111 032157 18616 INFO dfs.DataNode$PacketResponder: Received block blk_-4948227267596705326 of size 67108864 from /10.251.194.129081111 032157 18740 INFO dfs.DataNode$PacketResponder: PacketResponder 2 for block blk_-4948227267596705326 terminating081111 032157 18740 INFO dfs.DataNode$PacketResponder: Received block blk_-4948227267596705326 of size 67108864 from /10.251.194.129081111 032157 30 INFO dfs.FSNamesystem: BLOCK* NameSystem.addStoredBlock: blockMap updated: 10.251.194.147:50010 is added to blk_-4948227267596705326 size 67108864081111 032157 31 INFO dfs.FSNamesystem: BLOCK* NameSystem.addStoredBlock: blockMap updated: 10.251.194.129:50010 is added to blk_-4948227267596705326 size 67108864081111 032157 34 INFO dfs.FSNamesystem: BLOCK* NameSystem.addStoredBlock: blockMap updated: 10.251.38.214:50010 is added to blk_-4948227267596705326 size 67108864081111 044320 35 INFO dfs.FSNamesystem: BLOCK* NameSystem.delete: blk_-4948227267596705326 is added to invalidSet of 10.251.194.129:50010081111 044320 35 INFO dfs.FSNamesystem: BLOCK* NameSystem.delete: blk_-4948227267596705326 is added to invalidSet of 10.251.194.147:50010081111 044320 35 INFO dfs.FSNamesystem: BLOCK* NameSystem.delete: blk_-4948227267596705326 is added to invalidSet of 10.251.38.214:50010081111 044621 19 INFO dfs.FSDataset: Deleting block blk_-4948227267596705326 file /mnt/hadoop/dfs/data/current/subdir18/blk_-4948227267596705326081111 044629 19 INFO dfs.FSDataset: Deleting block blk_-4948227267596705326 file /mnt/hadoop/dfs/data/current/subdir10/blk_-4948227267596705326081111 044641 19 INFO dfs.FSDataset: Deleting block blk_-4948227267596705326 file /mnt/hadoop/dfs/data/current/subdir39/blk_-4948227267596705326081111 063332 22121 INFO dfs.DataNode$DataXceiver: Receiving block blk_7679407310626489280 src: /10.251.43.147:57336 dest: /10.251.43.147:50010081111 063332 22342 INFO dfs.DataNode$DataXceiver: Receiving block blk_7679407310626489280 src: /10.251.111.209:53373 dest: /10.251.111.209:50010081111 063332 22414 INFO dfs.DataNode$DataXceiver: Receiving block blk_7679407310626489280 src: /10.251.111.209:35849 dest: /10.251.111.209:50010081111 063332 28 INFO dfs.FSNamesystem: BLOCK* NameSystem.allocateBlock: /user/root/randtxt5/_temporary/_task_200811101024_0012_m_001379_0/part-01379. blk_7679407310626489280081111 063345 22122 INFO dfs.DataNode$PacketResponder: PacketResponder 0 for block blk_7679407310626489280 terminating081111 063345 22122 INFO dfs.DataNode$PacketResponder: Received block blk_7679407310626489280 of size 28490495 from /10.251.43.147081111 063345 22343 INFO dfs.DataNode$PacketResponder: PacketResponder 1 for block blk_7679407310626489280 terminating081111 063345 22343 INFO dfs.DataNode$PacketResponder: Received block blk_7679407310626489280 of size 28490495 from /10.251.111.209081111 063345 22415 INFO dfs.DataNode$PacketResponder: PacketResponder 2 for block blk_7679407310626489280 terminating081111 063345 22415 INFO dfs.DataNode$PacketResponder: Received block blk_7679407310626489280 of size 28490495 from /10.251.111.209081111 063345 29 INFO dfs.FSNamesystem: BLOCK* NameSystem.addStoredBlock: blockMap updated: 10.251.111.209:50010 is added to blk_7679407310626489280 size 28490495081111 063345 30 INFO dfs.FSNamesystem: BLOCK* NameSystem.addStoredBlock: blockMap updated: 10.251.111.80:50010 is added to blk_7679407310626489280 size 28490495081111 063345 32 INFO dfs.FSNamesystem: BLOCK* NameSystem.addStoredBlock: blockMap updated: 10.251.43.147:50010 is added to blk_7679407310626489280 size 28490495081111 065219 26 INFO dfs.FSNamesystem: BLOCK* NameSystem.delete: blk_7679407310626489280 is added to invalidSet of 10.251.111.209:50010081111 065219 26 INFO dfs.FSNamesystem: BLOCK* NameSystem.delete: blk_7679407310626489280 is added to invalidSet of 10.251.111.80:50010081111 065219 26 INFO dfs.FSNamesystem: BLOCK* NameSystem.delete: blk_7679407310626489280 is added to invalidSet of 10.251.43.147:50010081111 065506 19 INFO dfs.FSDataset: Deleting block blk_7679407310626489280 file /mnt/hadoop/dfs/data/current/subdir47/blk_7679407310626489280081111 065507 19 INFO dfs.FSDataset: Deleting block blk_7679407310626489280 file /mnt/hadoop/dfs/data/current/subdir36/blk_7679407310626489280081111 065524 18 INFO dfs.FSDataset: Deleting block blk_7679407310626489280 file /mnt/hadoop/dfs/data/current/subdir31/blk_7679407310626489280081110 104327 26 INFO dfs.FSNamesystem: BLOCK* NameSystem.allocateBlock: /user/root/rand/_temporary/_task_200811101024_0001_m_000008_0/part-00008. blk_5823728626874599076081110 104327 9175 INFO dfs.DataNode$DataXceiver: Receiving block blk_5823728626874599076 src: /10.251.121.224:52135 dest: /10.251.121.224:50010081110 104328 9297 INFO dfs.DataNode$DataXceiver: Receiving block blk_5823728626874599076 src: /10.250.11.194:48321 dest: /10.250.11.194:50010081110 104328 9431 INFO dfs.DataNode$DataXceiver: Receiving block blk_5823728626874599076 src: /10.251.121.224:33424 dest: /10.251.121.224:50010081110 104431 26 INFO dfs.FSNamesystem: BLOCK* NameSystem.addStoredBlock: blockMap updated: 10.251.121.224:50010 is added to blk_5823728626874599076 size 67108864081110 104431 33 INFO dfs.FSNamesystem: BLOCK* NameSystem.addStoredBlock: blockMap updated: 10.250.11.194:50010 is added to blk_5823728626874599076 size 67108864081110 104431 33 INFO dfs.FSNamesystem: BLOCK* NameSystem.addStoredBlock: blockMap updated: 10.251.30.179:50010 is added to blk_5823728626874599076 size 67108864081110 104431 9176 INFO dfs.DataNode$PacketResponder: PacketResponder 2 for block blk_5823728626874599076 terminating081110 104431 9176 INFO dfs.DataNode$PacketResponder: Received block blk_5823728626874599076 of size 67108864 from /10.251.121.224081110 104431 9298 INFO dfs.DataNode$PacketResponder: PacketResponder 0 for block blk_5823728626874599076 terminating081110 104431 9298 INFO dfs.DataNode$PacketResponder: Received block blk_5823728626874599076 of size 67108864 from /10.250.11.194081110 104431 9433 INFO dfs.DataNode$PacketResponder: PacketResponder 1 for block blk_5823728626874599076 terminating081110 104431 9433 INFO dfs.DataNode$PacketResponder: Received block blk_5823728626874599076 of size 67108864 from /10.251.121.224081110 124344 11718 WARN dfs.DataNode$DataXceiver: 10.250.11.194:50010:Got exception while serving blk_5823728626874599076 to /10.251.67.113:081110 124404 11628 WARN dfs.DataNode$DataXceiver: 10.251.30.179:50010:Got exception while serving blk_5823728626874599076 to /10.251.214.67:081110 124410 11719 INFO dfs.DataNode$DataXceiver: 10.250.11.194:50010 Served block blk_5823728626874599076 to /10.251.67.113081110 210137 28 INFO dfs.FSNamesystem: BLOCK* NameSystem.delete: blk_5823728626874599076 is added to invalidSet of 10.250.11.194:50010081110 210137 28 INFO dfs.FSNamesystem: BLOCK* NameSystem.delete: blk_5823728626874599076 is added to invalidSet of 10.251.121.224:50010081110 210137 28 INFO dfs.FSNamesystem: BLOCK* NameSystem.delete: blk_5823728626874599076 is added to invalidSet of 10.251.30.179:50010081110 210158 13 INFO dfs.DataBlockScanner: Verification succeeded for blk_5823728626874599076081110 210443 19 INFO dfs.FSDataset: Deleting block blk_5823728626874599076 file /mnt/hadoop/dfs/data/current/subdir15/blk_5823728626874599076081110 210545 19 INFO dfs.FSDataset: Deleting block blk_5823728626874599076 file /mnt/hadoop/dfs/data/current/subdir0/blk_5823728626874599076081110 210556 19 INFO dfs.FSDataset: Deleting block blk_5823728626874599076 file /mnt/hadoop/dfs/data/current/subdir42/blk_5823728626874599076081110 121339 10624 INFO dfs.DataNode$DataXceiver: Receiving block blk_7722365959962902005 src: /10.251.74.134:46990 dest: /10.251.74.134:50010
081110 121339 11009 INFO dfs.DataNode$DataXceiver: Receiving block blk_7722365959962902005 src: /10.251.74.134:42404 dest: /10.251.74.134:50010
081110 121339 34 INFO dfs.FSNamesystem: BLOCK* NameSystem.allocateBlock: /user/root/randtxt2/_temporary/_task_200811101024_0002_m_001401_0/part-01401. blk_7722365959962902005
081110 121340 10961 INFO dfs.DataNode$DataXceiver: Receiving block blk_7722365959962902005 src: /10.251.203.179:52849 dest: /10.251.203.179:50010
081110 121434 10625 INFO dfs.DataNode$PacketResponder: PacketResponder 1 for block blk_7722365959962902005 terminating
081110 121434 10625 INFO dfs.DataNode$PacketResponder: Received block blk_7722365959962902005 of size 67108864 from /10.251.74.134
081110 121434 10962 INFO dfs.DataNode$PacketResponder: PacketResponder 0 for block blk_7722365959962902005 terminating
081110 121434 10962 INFO dfs.DataNode$PacketResponder: Received block blk_7722365959962902005 of size 67108864 from /10.251.203.179
081110 121434 11010 INFO dfs.DataNode$PacketResponder: PacketResponder 2 for block blk_7722365959962902005 terminating
081110 121434 11010 INFO dfs.DataNode$PacketResponder: Received block blk_7722365959962902005 of size 67108864 from /10.251.74.134
081110 121434 27 INFO dfs.FSNamesystem: BLOCK* NameSystem.addStoredBlock: blockMap updated: 10.251.74.134:50010 is added to blk_7722365959962902005 size 67108864
081110 121434 30 INFO dfs.FSNamesystem: BLOCK* NameSystem.addStoredBlock: blockMap updated: 10.250.10.213:50010 is added to blk_7722365959962902005 size 67108864
081110 121434 33 INFO dfs.FSNamesystem: BLOCK* NameSystem.addStoredBlock: blockMap updated: 10.251.203.179:50010 is added to blk_7722365959962902005 size 67108864
081110 190621 14374 WARN dfs.DataNode$DataXceiver: 10.251.74.134:50010:Got exception while serving blk_7722365959962902005 to /10.250.7.244:
081110 190635 13761 INFO dfs.DataNode$DataXceiver: 10.251.203.179:50010 Served block blk_7722365959962902005 to /10.251.203.179
081110 190655 14240 INFO dfs.DataNode$DataXceiver: 10.250.10.213:50010 Served block blk_7722365959962902005 to /10.251.125.237
081111 020145 17178 INFO dfs.DataNode$DataXceiver: 10.251.203.179:50010 Served block blk_7722365959962902005 to /10.251.125.237
081111 020212 17682 WARN dfs.DataNode$DataXceiver: 10.250.10.213:50010:Got exception while serving blk_7722365959962902005 to /10.250.7.244:
081111 020230 17191 INFO dfs.DataNode$DataXceiver: 10.251.203.179:50010 Served block blk_7722365959962902005 to /10.251.203.179
081111 023030 27 INFO dfs.FSNamesystem: BLOCK* NameSystem.delete: blk_7722365959962902005 is added to invalidSet of 10.250.10.213:50010
081111 023030 27 INFO dfs.FSNamesystem: BLOCK* NameSystem.delete: blk_7722365959962902005 is added to invalidSet of 10.251.203.179:50010
081111 023030 27 INFO dfs.FSNamesystem: BLOCK* NameSystem.delete: blk_7722365959962902005 is added to invalidSet of 10.251.74.134:50010
081111 023258 19 INFO dfs.FSDataset: Deleting block blk_7722365959962902005 file /mnt/hadoop/dfs/data/current/subdir41/blk_7722365959962902005
081111 023301 19 INFO dfs.FSDataset: Deleting block blk_7722365959962902005 file /mnt/hadoop/dfs/data/current/subdir63/blk_7722365959962902005
081111 023304 19 INFO dfs.FSDataset: Deleting block blk_7722365959962902005 file /mnt/hadoop/dfs/data/current/subdir35/blk_7722365959962902005
081111 065503 22265 INFO dfs.DataNode$DataXceiver: Receiving block blk_-3835256182626748799 src: /10.251.201.204:37948 dest: /10.251.201.204:50010
081111 065503 22538 INFO dfs.DataNode$DataXceiver: Receiving block blk_-3835256182626748799 src: /10.251.199.245:35988 dest: /10.251.199.245:50010
081111 065503 22718 INFO dfs.DataNode$DataXceiver: Receiving block blk_-3835256182626748799 src: /10.251.201.204:39350 dest: /10.251.201.204:50010
081111 065503 26 INFO dfs.FSNamesystem: BLOCK* NameSystem.allocateBlock: /user/root/rand6/_temporary/_task_200811101024_0013_m_000123_0/part-00123. blk_-3835256182626748799
081111 065546 22266 INFO dfs.DataNode$PacketResponder: PacketResponder 2 for block blk_-3835256182626748799 terminating
081111 065546 22266 INFO dfs.DataNode$PacketResponder: Received block blk_-3835256182626748799 of size 67108864 from /10.251.201.204
081111 065546 22539 INFO dfs.DataNode$PacketResponder: PacketResponder 0 for block blk_-3835256182626748799 terminating
081111 065546 22539 INFO dfs.DataNode$PacketResponder: Received block blk_-3835256182626748799 of size 67108864 from /10.251.199.245
081111 065546 22721 INFO dfs.DataNode$PacketResponder: PacketResponder 1 for block blk_-3835256182626748799 terminating
081111 065546 22721 INFO dfs.DataNode$PacketResponder: Received block blk_-3835256182626748799 of size 67108864 from /10.251.201.204
081111 065546 26 INFO dfs.FSNamesystem: BLOCK* NameSystem.addStoredBlock: blockMap updated: 10.250.7.244:50010 is added to blk_-3835256182626748799 size 67108864
081111 065546 33 INFO dfs.FSNamesystem: BLOCK* NameSystem.addStoredBlock: blockMap updated: 10.251.199.245:50010 is added to blk_-3835256182626748799 size 67108864
081111 065852 35 INFO dfs.FSNamesystem: BLOCK* NameSystem.addStoredBlock: blockMap updated: 10.251.201.204:50010 is added to blk_-3835256182626748799 size 67108864
081111 085907 27 INFO dfs.FSNamesystem: BLOCK* NameSystem.delete: blk_-3835256182626748799 is added to invalidSet of 10.250.7.244:50010
081111 085907 27 INFO dfs.FSNamesystem: BLOCK* NameSystem.delete: blk_-3835256182626748799 is added to invalidSet of 10.251.199.245:50010
081111 085907 27 INFO dfs.FSNamesystem: BLOCK* NameSystem.delete: blk_-3835256182626748799 is added to invalidSet of 10.251.201.204:50010
081111 090100 19 INFO dfs.FSDataset: Deleting block blk_-3835256182626748799 file /mnt/hadoop/dfs/data/current/subdir45/blk_-3835256182626748799
081111 090121 19 INFO dfs.FSDataset: Deleting block blk_-3835256182626748799 file /mnt/hadoop/dfs/data/current/subdir3/blk_-3835256182626748799
081111 090143 19 INFO dfs.FSDataset: Deleting block blk_-3835256182626748799 file /mnt/hadoop/dfs/data/current/subdir61/blk_-3835256182626748799
081111 063357 22195 INFO dfs.DataNode$DataXceiver: Receiving block blk_-7112356846021929212 src: /10.251.122.38:50836 dest: /10.251.122.38:50010
081111 063357 32 INFO dfs.FSNamesystem: BLOCK* NameSystem.allocateBlock: /user/root/randtxt5/_temporary/_task_200811101024_0012_m_001647_0/part-01647. blk_-7112356846021929212
081111 063358 17328 INFO dfs.DataNode$DataXceiver: Receiving block blk_-7112356846021929212 src: /10.251.66.192:42393 dest: /10.251.66.192:50010
081111 063358 22233 INFO dfs.DataNode$DataXceiver: Receiving block blk_-7112356846021929212 src: /10.251.122.38:57266 dest: /10.251.122.38:50010
081111 063632 17329 INFO dfs.DataNode$PacketResponder: PacketResponder 0 for block blk_-7112356846021929212 terminating
081111 063632 17329 INFO dfs.DataNode$PacketResponder: Received block blk_-7112356846021929212 of size 67108864 from /10.251.66.192
081111 063632 22196 INFO dfs.DataNode$PacketResponder: PacketResponder 2 for block blk_-7112356846021929212 terminating
081111 063632 22196 INFO dfs.DataNode$PacketResponder: Received block blk_-7112356846021929212 of size 67108864 from /10.251.122.38
081111 063632 22234 INFO dfs.DataNode$PacketResponder: PacketResponder 1 for block blk_-7112356846021929212 terminating
081111 063632 22234 INFO dfs.DataNode$PacketResponder: Received block blk_-7112356846021929212 of size 67108864 from /10.251.122.38
081111 063632 27 INFO dfs.FSNamesystem: BLOCK* NameSystem.addStoredBlock: blockMap updated: 10.251.122.38:50010 is added to blk_-7112356846021929212 size 67108864
081111 063632 30 INFO dfs.FSNamesystem: BLOCK* NameSystem.addStoredBlock: blockMap updated: 10.251.66.192:50010 is added to blk_-7112356846021929212 size 67108864
081111 063632 32 INFO dfs.FSNamesystem: BLOCK* NameSystem.addStoredBlock: blockMap updated: 10.251.39.160:50010 is added to blk_-7112356846021929212 size 67108864
081111 065223 26 INFO dfs.FSNamesystem: BLOCK* NameSystem.delete: blk_-7112356846021929212 is added to invalidSet of 10.251.122.38:50010
081111 065223 26 INFO dfs.FSNamesystem: BLOCK* NameSystem.delete: blk_-7112356846021929212 is added to invalidSet of 10.251.39.160:50010
081111 065223 26 INFO dfs.FSNamesystem: BLOCK* NameSystem.delete: blk_-7112356846021929212 is added to invalidSet of 10.251.66.192:50010
081111 065325 19 INFO dfs.FSDataset: Deleting block blk_-7112356846021929212 file /mnt/hadoop/dfs/data/current/subdir25/blk_-7112356846021929212
081111 065429 19 INFO dfs.FSDataset: Deleting block blk_-7112356846021929212 file /mnt/hadoop/dfs/data/current/subdir49/blk_-7112356846021929212
081111 070525 19 INFO dfs.FSDataset: Deleting block blk_-7112356846021929212 file /mnt/hadoop/dfs/data/current/subdir39/blk_-7112356846021929212
081111 041222 19530 INFO dfs.DataNode$DataXceiver: Receiving block blk_-2495992559371221794 src: /10.251.111.80:35322 dest: /10.251.111.80:50010
081111 041222 35 INFO dfs.FSNamesystem: BLOCK* NameSystem.allocateBlock: /user/root/randtxt4/_temporary/_task_200811101024_0010_m_000851_0/part-00851. blk_-2495992559371221794
081111 041223 19296 INFO dfs.DataNode$DataXceiver: Receiving block blk_-2495992559371221794 src: /10.251.111.80:51839 dest: /10.251.111.80:50010
081111 041223 19328 INFO dfs.DataNode$DataXceiver: Receiving block blk_-2495992559371221794 src: /10.250.15.67:60326 dest: /10.250.15.67:50010
081111 041248 19329 INFO dfs.DataNode$PacketResponder: PacketResponder 0 for block blk_-2495992559371221794 terminating
081111 041248 19329 INFO dfs.DataNode$PacketResponder: Received block blk_-2495992559371221794 of size 67108864 from /10.250.15.67
081111 041248 30 INFO dfs.FSNamesystem: BLOCK* NameSystem.addStoredBlock: blockMap updated: 10.251.214.32:50010 is added to blk_-2495992559371221794 size 67108864
081111 041249 19297 INFO dfs.DataNode$PacketResponder: PacketResponder 1 for block blk_-2495992559371221794 terminating
081111 041249 19297 INFO dfs.DataNode$PacketResponder: Received block blk_-2495992559371221794 of size 67108864 from /10.251.111.80
081111 041249 19531 INFO dfs.DataNode$PacketResponder: PacketResponder 2 for block blk_-2495992559371221794 terminating
081111 041249 19531 INFO dfs.DataNode$PacketResponder: Received block blk_-2495992559371221794 of size 67108864 from /10.251.111.80
081111 041249 33 INFO dfs.FSNamesystem: BLOCK* NameSystem.addStoredBlock: blockMap updated: 10.251.111.80:50010 is added to blk_-2495992559371221794 size 67108864
081111 041249 35 INFO dfs.FSNamesystem: BLOCK* NameSystem.addStoredBlock: blockMap updated: 10.250.15.67:50010 is added to blk_-2495992559371221794 size 67108864
081111 070534 22751 INFO dfs.DataNode$DataXceiver: Receiving block blk_-3910013139673109815 src: /10.251.110.68:50143 dest: /10.251.110.68:50010
081111 070534 22958 INFO dfs.DataNode$DataXceiver: Receiving block blk_-3910013139673109815 src: /10.251.66.3:41999 dest: /10.251.66.3:50010
081111 070534 23074 INFO dfs.DataNode$DataXceiver: Receiving block blk_-3910013139673109815 src: /10.251.66.3:48141 dest: /10.251.66.3:50010
081111 070534 33 INFO dfs.FSNamesystem: BLOCK* NameSystem.allocateBlock: /user/root/rand6/_temporary/_task_200811101024_0013_m_000675_0/part-00675. blk_-3910013139673109815
081111 070640 22752 INFO dfs.DataNode$PacketResponder: PacketResponder 0 for block blk_-3910013139673109815 terminating
081111 070640 22752 INFO dfs.DataNode$PacketResponder: Received block blk_-3910013139673109815 of size 67108864 from /10.251.110.68
081111 070640 22959 INFO dfs.DataNode$PacketResponder: PacketResponder 1 for block blk_-3910013139673109815 terminating
081111 070640 22959 INFO dfs.DataNode$PacketResponder: Received block blk_-3910013139673109815 of size 67108864 from /10.251.66.3
081111 070640 23075 INFO dfs.DataNode$PacketResponder: PacketResponder 2 for block blk_-3910013139673109815 terminating
081111 070640 23075 INFO dfs.DataNode$PacketResponder: Received block blk_-3910013139673109815 of size 67108864 from /10.251.66.3
081111 070640 26 INFO dfs.FSNamesystem: BLOCK* NameSystem.addStoredBlock: blockMap updated: 10.251.66.3:50010 is added to blk_-3910013139673109815 size 67108864
081111 070640 27 INFO dfs.FSNamesystem: BLOCK* NameSystem.addStoredBlock: blockMap updated: 10.251.42.207:50010 is added to blk_-3910013139673109815 size 67108864
081111 070640 32 INFO dfs.FSNamesystem: BLOCK* NameSystem.addStoredBlock: blockMap updated: 10.251.110.68:50010 is added to blk_-3910013139673109815 size 67108864
081111 085914 27 INFO dfs.FSNamesystem: BLOCK* NameSystem.delete: blk_-3910013139673109815 is added to invalidSet of 10.251.110.68:50010
081111 085914 27 INFO dfs.FSNamesystem: BLOCK* NameSystem.delete: blk_-3910013139673109815 is added to invalidSet of 10.251.42.207:50010
081111 085914 27 INFO dfs.FSNamesystem: BLOCK* NameSystem.delete: blk_-3910013139673109815 is added to invalidSet of 10.251.66.3:50010
081111 090119 19 INFO dfs.FSDataset: Deleting block blk_-3910013139673109815 file /mnt/hadoop/dfs/data/current/subdir2/blk_-3910013139673109815
081111 090130 19 INFO dfs.FSDataset: Deleting block blk_-3910013139673109815 file /mnt/hadoop/dfs/data/current/subdir6/blk_-3910013139673109815
081111 090135 19 INFO dfs.FSDataset: Deleting block blk_-3910013139673109815 file /mnt/hadoop/dfs/data/current/subdir21/blk_-3910013139673109815
081110 150335 12605 INFO dfs.DataNode$DataXceiver: Receiving block blk_-8657685890298884504 src: /10.251.203.179:51262 dest: /10.251.203.179:50010
081110 150335 12722 INFO dfs.DataNode$DataXceiver: Receiving block blk_-8657685890298884504 src: /10.251.123.99:51436 dest: /10.251.123.99:50010
081110 150335 12839 INFO dfs.DataNode$DataXceiver: Receiving block blk_-8657685890298884504 src: /10.251.203.179:39014 dest: /10.251.203.179:50010
081110 150335 31 INFO dfs.FSNamesystem: BLOCK* NameSystem.allocateBlock: /user/root/sortrand2/_temporary/_task_200811101024_0003_r_000106_0/part-00106. blk_-8657685890298884504
081110 150359 12606 INFO dfs.DataNode$PacketResponder: PacketResponder 2 for block blk_-8657685890298884504 terminating
081110 150359 12606 INFO dfs.DataNode$PacketResponder: Received block blk_-8657685890298884504 of size 67108864 from /10.251.203.179
081110 150359 12723 INFO dfs.DataNode$PacketResponder: PacketResponder 0 for block blk_-8657685890298884504 terminating
081110 150359 12723 INFO dfs.DataNode$PacketResponder: Received block blk_-8657685890298884504 of size 67108864 from /10.251.123.99
081110 150359 12840 INFO dfs.DataNode$PacketResponder: PacketResponder 1 for block blk_-8657685890298884504 terminating
081110 150359 12840 INFO dfs.DataNode$PacketResponder: Received block blk_-8657685890298884504 of size 67108864 from /10.251.203.179
081110 150359 29 INFO dfs.FSNamesystem: BLOCK* NameSystem.addStoredBlock: blockMap updated: 10.251.123.99:50010 is added to blk_-8657685890298884504 size 67108864
081110 150359 30 INFO dfs.FSNamesystem: BLOCK* NameSystem.addStoredBlock: blockMap updated: 10.251.127.243:50010 is added to blk_-8657685890298884504 size 67108864
081110 150359 30 INFO dfs.FSNamesystem: BLOCK* NameSystem.addStoredBlock: blockMap updated: 10.251.203.179:50010 is added to blk_-8657685890298884504 size 67108864
081110 210119 28 INFO dfs.FSNamesystem: BLOCK* NameSystem.delete: blk_-8657685890298884504 is added to invalidSet of 10.251.123.99:50010
081110 210119 28 INFO dfs.FSNamesystem: BLOCK* NameSystem.delete: blk_-8657685890298884504 is added to invalidSet of 10.251.127.243:50010
081110 210119 28 INFO dfs.FSNamesystem: BLOCK* NameSystem.delete: blk_-8657685890298884504 is added to invalidSet of 10.251.203.179:50010
081110 210240 19 INFO dfs.FSDataset: Deleting block blk_-8657685890298884504 file /mnt/hadoop/dfs/data/current/subdir7/blk_-8657685890298884504
081110 210305 18 INFO dfs.FSDataset: Deleting block blk_-8657685890298884504 file /mnt/hadoop/dfs/data/current/subdir57/blk_-8657685890298884504
081110 210332 19 INFO dfs.FSDataset: Deleting block blk_-8657685890298884504 file /mnt/hadoop/dfs/data/current/subdir17/blk_-8657685890298884504
081110 111939 10013 INFO dfs.DataNode$DataXceiver: Receiving block blk_4471458187127699912 src: /10.250.10.100:59889 dest: /10.250.10.100:50010
081110 111939 28 INFO dfs.FSNamesystem: BLOCK* NameSystem.allocateBlock: /user/root/rand/_temporary/_task_200811101024_0001_m_001324_0/part-01324. blk_4471458187127699912
081110 111939 9735 INFO dfs.DataNode$DataXceiver: Receiving block blk_4471458187127699912 src: /10.250.10.100:44876 dest: /10.250.10.100:50010
081110 111939 9783 INFO dfs.DataNode$DataXceiver: Receiving block blk_4471458187127699912 src: /10.251.70.112:50256 dest: /10.251.70.112:50010
081110 112027 10016 INFO dfs.DataNode$PacketResponder: PacketResponder 1 for block blk_4471458187127699912 terminating
081110 112027 10016 INFO dfs.DataNode$PacketResponder: Received block blk_4471458187127699912 of size 67108864 from /10.250.10.100
081110 112027 26 INFO dfs.FSNamesystem: BLOCK* NameSystem.addStoredBlock: blockMap updated: 10.251.214.175:50010 is added to blk_4471458187127699912 size 67108864
081110 112027 32 INFO dfs.FSNamesystem: BLOCK* NameSystem.addStoredBlock: blockMap updated: 10.251.70.112:50010 is added to blk_4471458187127699912 size 67108864
081110 112027 33 INFO dfs.FSNamesystem: BLOCK* NameSystem.addStoredBlock: blockMap updated: 10.250.10.100:50010 is added to blk_4471458187127699912 size 67108864
081110 112027 9736 INFO dfs.DataNode$PacketResponder: PacketResponder 2 for block blk_4471458187127699912 terminating
081110 112027 9736 INFO dfs.DataNode$PacketResponder: Received block blk_4471458187127699912 of size 67108864 from /10.250.10.100
081110 112027 9784 INFO dfs.DataNode$PacketResponder: PacketResponder 0 for block blk_4471458187127699912 terminating
081110 112027 9784 INFO dfs.DataNode$PacketResponder: Received block blk_4471458187127699912 of size 67108864 from /10.251.70.112
081110 120330 13 INFO dfs.DataBlockScanner: Verification succeeded for blk_4471458187127699912
081110 133306 11792 WARN dfs.DataNode$DataXceiver: 10.251.214.175:50010:Got exception while serving blk_4471458187127699912 to /10.250.7.146:
081110 133329 11801 WARN dfs.DataNode$DataXceiver: 10.251.214.175:50010:Got exception while serving blk_4471458187127699912 to /10.251.194.245:
081110 133350 11793 INFO dfs.DataNode$DataXceiver: 10.251.214.175:50010 Served block blk_4471458187127699912 to /10.250.7.146
081110 210154 28 INFO dfs.FSNamesystem: BLOCK* NameSystem.delete: blk_4471458187127699912 is added to invalidSet of 10.250.10.100:50010
081110 210154 28 INFO dfs.FSNamesystem: BLOCK* NameSystem.delete: blk_4471458187127699912 is added to invalidSet of 10.251.214.175:50010
081110 210154 28 INFO dfs.FSNamesystem: BLOCK* NameSystem.delete: blk_4471458187127699912 is added to invalidSet of 10.251.70.112:50010
081110 210551 19 INFO dfs.FSDataset: Deleting block blk_4471458187127699912 file /mnt/hadoop/dfs/data/current/subdir10/blk_4471458187127699912
081110 210559 19 INFO dfs.FSDataset: Deleting block blk_4471458187127699912 file /mnt/hadoop/dfs/data/current/subdir19/blk_4471458187127699912
081110 210629 19 INFO dfs.FSDataset: Deleting block blk_4471458187127699912 file /mnt/hadoop/dfs/data/current/subdir32/blk_4471458187127699912
081110 110607 33 INFO dfs.FSNamesystem: BLOCK* NameSystem.allocateBlock: /user/root/rand/_temporary/_task_200811101024_0001_m_001049_0/part-01049. blk_9153602738629038305
081110 110607 9505 INFO dfs.DataNode$DataXceiver: Receiving block blk_9153602738629038305 src: /10.251.91.229:53282 dest: /10.251.91.229:50010
081110 110607 9583 INFO dfs.DataNode$DataXceiver: Receiving block blk_9153602738629038305 src: /10.251.203.80:43304 dest: /10.251.203.80:50010
081110 110607 9622 INFO dfs.DataNode$DataXceiver: Receiving block blk_9153602738629038305 src: /10.251.203.80:60984 dest: /10.251.203.80:50010
081110 110657 29 INFO dfs.FSNamesystem: BLOCK* NameSystem.addStoredBlock: blockMap updated: 10.251.91.229:50010 is added to blk_9153602738629038305 size 67108864
081110 110657 32 INFO dfs.FSNamesystem: BLOCK* NameSystem.addStoredBlock: blockMap updated: 10.250.15.67:50010 is added to blk_9153602738629038305 size 67108864
081110 110657 34 INFO dfs.FSNamesystem: BLOCK* NameSystem.addStoredBlock: blockMap updated: 10.251.203.80:50010 is added to blk_9153602738629038305 size 67108864
081110 110657 9506 INFO dfs.DataNode$PacketResponder: PacketResponder 0 for block blk_9153602738629038305 terminating
081110 110657 9506 INFO dfs.DataNode$PacketResponder: Received block blk_9153602738629038305 of size 67108864 from /10.251.91.229
081110 110657 9623 INFO dfs.DataNode$PacketResponder: PacketResponder 2 for block blk_9153602738629038305 terminating
081110 110657 9623 INFO dfs.DataNode$PacketResponder: Received block blk_9153602738629038305 of size 67108864 from /10.251.203.80
081110 110658 9584 INFO dfs.DataNode$PacketResponder: PacketResponder 1 for block blk_9153602738629038305 terminating
081110 110658 9584 INFO dfs.DataNode$PacketResponder: Received block blk_9153602738629038305 of size 67108864 from /10.251.203.80
081110 132311 11836 WARN dfs.DataNode$DataXceiver: 10.251.203.80:50010:Got exception while serving blk_9153602738629038305 to /10.251.203.80:
081110 132333 11768 WARN dfs.DataNode$DataXceiver: 10.251.91.229:50010:Got exception while serving blk_9153602738629038305 to /10.251.74.79:
081110 132356 11837 INFO dfs.DataNode$DataXceiver: 10.251.203.80:50010 Served block blk_9153602738629038305 to /10.251.203.80
081110 192602 13 INFO dfs.DataBlockScanner: Verification succeeded for blk_9153602738629038305
081110 210150 28 INFO dfs.FSNamesystem: BLOCK* NameSystem.delete: blk_9153602738629038305 is added to invalidSet of 10.250.15.67:50010
081110 210150 28 INFO dfs.FSNamesystem: BLOCK* NameSystem.delete: blk_9153602738629038305 is added to invalidSet of 10.251.203.80:50010
081110 210150 28 INFO dfs.FSNamesystem: BLOCK* NameSystem.delete: blk_9153602738629038305 is added to invalidSet of 10.251.91.229:50010
081110 210628 18 INFO dfs.FSDataset: Deleting block blk_9153602738629038305 file /mnt/hadoop/dfs/data/current/subdir44/blk_9153602738629038305
081110 210631 19 INFO dfs.FSDataset: Deleting block blk_9153602738629038305 file /mnt/hadoop/dfs/data/current/subdir42/blk_9153602738629038305
081110 210813 19 INFO dfs.FSDataset: Deleting block blk_9153602738629038305 file /mnt/hadoop/dfs/data/current/subdir32/blk_9153602738629038305
081110 222203 16113 INFO dfs.DataNode$DataXceiver: Receiving block blk_-6286047529002628078 src: /10.251.38.53:53733 dest: /10.251.38.53:50010
081110 222203 16145 INFO dfs.DataNode$DataXceiver: Receiving block blk_-6286047529002628078 src: /10.251.38.53:37122 dest: /10.251.38.53:50010
081110 222203 33 INFO dfs.FSNamesystem: BLOCK* NameSystem.allocateBlock: /user/root/randtxt3/_temporary/_task_200811101024_0007_m_000655_0/part-00655. blk_-6286047529002628078
081110 222204 16188 INFO dfs.DataNode$DataXceiver: Receiving block blk_-6286047529002628078 src: /10.251.106.37:59977 dest: /10.251.106.37:50010
081110 222226 16114 INFO dfs.DataNode$PacketResponder: PacketResponder 1 for block blk_-6286047529002628078 terminating
081110 222226 16114 INFO dfs.DataNode$PacketResponder: Received block blk_-6286047529002628078 of size 67108864 from /10.251.38.53
081110 222226 16146 INFO dfs.DataNode$PacketResponder: PacketResponder 2 for block blk_-6286047529002628078 terminating
081110 222226 16146 INFO dfs.DataNode$PacketResponder: Received block blk_-6286047529002628078 of size 67108864 from /10.251.38.53
081110 222226 16189 INFO dfs.DataNode$PacketResponder: PacketResponder 0 for block blk_-6286047529002628078 terminating
081110 222226 16189 INFO dfs.DataNode$PacketResponder: Received block blk_-6286047529002628078 of size 67108864 from /10.251.106.37
081110 222226 26 INFO dfs.FSNamesystem: BLOCK* NameSystem.addStoredBlock: blockMap updated: 10.251.38.53:50010 is added to blk_-6286047529002628078 size 67108864
081110 222226 27 INFO dfs.FSNamesystem: BLOCK* NameSystem.addStoredBlock: blockMap updated: 10.251.106.37:50010 is added to blk_-6286047529002628078 size 67108864
081110 222226 29 INFO dfs.FSNamesystem: BLOCK* NameSystem.addStoredBlock: blockMap updated: 10.250.19.16:50010 is added to blk_-6286047529002628078 size 67108864
081111 044335 29 INFO dfs.FSNamesystem: BLOCK* NameSystem.delete: blk_-6286047529002628078 is added to invalidSet of 10.250.19.16:50010
081111 044335 29 INFO dfs.FSNamesystem: BLOCK* NameSystem.delete: blk_-6286047529002628078 is added to invalidSet of 10.251.106.37:50010
081111 044335 29 INFO dfs.FSNamesystem: BLOCK* NameSystem.delete: blk_-6286047529002628078 is added to invalidSet of 10.251.38.53:50010
081111 044540 19 INFO dfs.FSDataset: Deleting block blk_-6286047529002628078 file /mnt/hadoop/dfs/data/current/subdir31/blk_-6286047529002628078
081111 044559 19 INFO dfs.FSDataset: Deleting block blk_-6286047529002628078 file /mnt/hadoop/dfs/data/current/subdir61/blk_-6286047529002628078
081111 044707 19 INFO dfs.FSDataset: Deleting block blk_-6286047529002628078 file /mnt/hadoop/dfs/data/current/subdir10/blk_-6286047529002628078
081110 150429 12680 INFO dfs.DataNode$DataXceiver: Receiving block blk_1930659253367023799 src: /10.251.67.225:53196 dest: /10.251.67.225:50010
081110 150429 13316 INFO dfs.DataNode$DataXceiver: Receiving block blk_1930659253367023799 src: /10.251.198.33:45325 dest: /10.251.198.33:50010
081110 150429 13318 INFO dfs.DataNode$DataXceiver: Receiving block blk_1930659253367023799 src: /10.251.198.33:45852 dest: /10.251.198.33:50010
081110 150429 35 INFO dfs.FSNamesystem: BLOCK* NameSystem.allocateBlock: /user/root/sortrand2/_temporary/_task_200811101024_0003_r_000239_0/part-00239. blk_1930659253367023799
081110 150453 12681 INFO dfs.DataNode$PacketResponder: PacketResponder 0 for block blk_1930659253367023799 terminating
081110 150453 12681 INFO dfs.DataNode$PacketResponder: Received block blk_1930659253367023799 of size 67108864 from /10.251.67.225
081110 150453 13317 INFO dfs.DataNode$PacketResponder: PacketResponder 2 for block blk_1930659253367023799 terminating
081110 150453 13317 INFO dfs.DataNode$PacketResponder: Received block blk_1930659253367023799 of size 67108864 from /10.251.198.33
081110 150453 13319 INFO dfs.DataNode$PacketResponder: PacketResponder 1 for block blk_1930659253367023799 terminating
081110 150453 13319 INFO dfs.DataNode$PacketResponder: Received block blk_1930659253367023799 of size 67108864 from /10.251.198.33
081110 150453 28 INFO dfs.FSNamesystem: BLOCK* NameSystem.addStoredBlock: blockMap updated: 10.251.67.225:50010 is added to blk_1930659253367023799 size 67108864
081110 150453 29 INFO dfs.FSNamesystem: BLOCK* NameSystem.addStoredBlock: blockMap updated: 10.251.126.255:50010 is added to blk_1930659253367023799 size 67108864
081110 150453 32 INFO dfs.FSNamesystem: BLOCK* NameSystem.addStoredBlock: blockMap updated: 10.251.198.33:50010 is added to blk_1930659253367023799 size 67108864
081110 210127 28 INFO dfs.FSNamesystem: BLOCK* NameSystem.delete: blk_1930659253367023799 is added to invalidSet of 10.251.126.255:50010
081110 210127 28 INFO dfs.FSNamesystem: BLOCK* NameSystem.delete: blk_1930659253367023799 is added to invalidSet of 10.251.198.33:50010
081110 210127 28 INFO dfs.FSNamesystem: BLOCK* NameSystem.delete: blk_1930659253367023799 is added to invalidSet of 10.251.67.225:50010
081110 210519 19 INFO dfs.FSDataset: Deleting block blk_1930659253367023799 file /mnt/hadoop/dfs/data/current/subdir47/blk_1930659253367023799
081110 210556 19 INFO dfs.FSDataset: Deleting block blk_1930659253367023799 file /mnt/hadoop/dfs/data/current/subdir42/blk_1930659253367023799
081110 210603 18 INFO dfs.FSDataset: Deleting block blk_1930659253367023799 file /mnt/hadoop/dfs/data/current/subdir57/blk_1930659253367023799
081109 235959 35 INFO dfs.FSNamesystem: BLOCK* NameSystem.allocateBlock: /user/root/sortrand/_temporary/_task_200811092030_0002_r_000327_0/part-00327. blk_6176126235863306811
081109 235959 4312 INFO dfs.DataNode$DataXceiver: Receiving block blk_6176126235863306811 src: /10.251.126.22:35050 dest: /10.251.126.22:50010
081109 235959 4466 INFO dfs.DataNode$DataXceiver: Receiving block blk_6176126235863306811 src: /10.251.126.22:57664 dest: /10.251.126.22:50010
081109 235959 4557 INFO dfs.DataNode$DataXceiver: Receiving block blk_6176126235863306811 src: /10.251.123.132:41093 dest: /10.251.123.132:50010
081110 000022 31 INFO dfs.FSNamesystem: BLOCK* NameSystem.addStoredBlock: blockMap updated: 10.251.123.132:50010 is added to blk_6176126235863306811 size 67108864
081110 000022 32 INFO dfs.FSNamesystem: BLOCK* NameSystem.addStoredBlock: blockMap updated: 10.251.126.22:50010 is added to blk_6176126235863306811 size 67108864
081110 000022 35 INFO dfs.FSNamesystem: BLOCK* NameSystem.addStoredBlock: blockMap updated: 10.250.7.96:50010 is added to blk_6176126235863306811 size 67108864
081110 000022 4313 INFO dfs.DataNode$PacketResponder: PacketResponder 1 for block blk_6176126235863306811 terminating
081110 000022 4313 INFO dfs.DataNode$PacketResponder: Received block blk_6176126235863306811 of size 67108864 from /10.251.126.22
081110 000022 4467 INFO dfs.DataNode$PacketResponder: PacketResponder 2 for block blk_6176126235863306811 terminating
081110 000022 4467 INFO dfs.DataNode$PacketResponder: Received block blk_6176126235863306811 of size 67108864 from /10.251.126.22
081110 000022 4558 INFO dfs.DataNode$PacketResponder: PacketResponder 0 for block blk_6176126235863306811 terminating
081110 000022 4558 INFO dfs.DataNode$PacketResponder: Received block blk_6176126235863306811 of size 67108864 from /10.251.123.132
081110 103148 30 INFO dfs.FSNamesystem: BLOCK* NameSystem.delete: blk_6176126235863306811 is added to invalidSet of 10.250.7.96:50010
081110 103148 30 INFO dfs.FSNamesystem: BLOCK* NameSystem.delete: blk_6176126235863306811 is added to invalidSet of 10.251.123.132:50010
081110 103148 30 INFO dfs.FSNamesystem: BLOCK* NameSystem.delete: blk_6176126235863306811 is added to invalidSet of 10.251.126.22:50010
081110 103724 19 INFO dfs.FSDataset: Deleting block blk_6176126235863306811 file /mnt/hadoop/dfs/data/current/subdir10/blk_6176126235863306811
081110 103748 19 INFO dfs.FSDataset: Deleting block blk_6176126235863306811 file /mnt/hadoop/dfs/data/current/subdir32/blk_6176126235863306811
081110 103837 19 INFO dfs.FSDataset: Deleting block blk_6176126235863306811 file /mnt/hadoop/dfs/data/current/subdir43/blk_6176126235863306811
081110 105418 29 INFO dfs.FSNamesystem: BLOCK* NameSystem.allocateBlock: /user/root/rand/_temporary/_task_200811101024_0001_m_000521_0/part-00521. blk_8480406947138834451
081110 105418 9362 INFO dfs.DataNode$DataXceiver: Receiving block blk_8480406947138834451 src: /10.250.18.114:52915 dest: /10.250.18.114:50010
081110 105418 9515 INFO dfs.DataNode$DataXceiver: Receiving block blk_8480406947138834451 src: /10.250.18.114:37061 dest: /10.250.18.114:50010
081110 105418 9596 INFO dfs.DataNode$DataXceiver: Receiving block blk_8480406947138834451 src: /10.250.9.207:41329 dest: /10.250.9.207:50010
081110 105446 27 INFO dfs.FSNamesystem: BLOCK* NameSystem.addStoredBlock: blockMap updated: 10.251.198.33:50010 is added to blk_8480406947138834451 size 67108864
081110 105446 29 INFO dfs.FSNamesystem: BLOCK* NameSystem.addStoredBlock: blockMap updated: 10.250.9.207:50010 is added to blk_8480406947138834451 size 67108864
081110 105446 32 INFO dfs.FSNamesystem: BLOCK* NameSystem.addStoredBlock: blockMap updated: 10.250.18.114:50010 is added to blk_8480406947138834451 size 67108864
081110 105446 9363 INFO dfs.DataNode$PacketResponder: PacketResponder 1 for block blk_8480406947138834451 terminating
081110 105446 9363 INFO dfs.DataNode$PacketResponder: Received block blk_8480406947138834451 of size 67108864 from /10.250.18.114
081110 105446 9516 INFO dfs.DataNode$PacketResponder: PacketResponder 2 for block blk_8480406947138834451 terminating
081110 105446 9516 INFO dfs.DataNode$PacketResponder: Received block blk_8480406947138834451 of size 67108864 from /10.250.18.114
081110 105446 9597 INFO dfs.DataNode$PacketResponder: PacketResponder 0 for block blk_8480406947138834451 terminating
081110 105446 9597 INFO dfs.DataNode$PacketResponder: Received block blk_8480406947138834451 of size 67108864 from /10.250.9.207
081110 124311 11552 WARN dfs.DataNode$DataXceiver: 10.250.18.114:50010:Got exception while serving blk_8480406947138834451 to /10.251.39.144:
081110 124321 11553 INFO dfs.DataNode$DataXceiver: 10.250.18.114:50010 Served block blk_8480406947138834451 to /10.251.39.144
081110 130411 11645 WARN dfs.DataNode$DataXceiver: 10.250.9.207:50010:Got exception while serving blk_8480406947138834451 to /10.251.194.102:
081110 210144 28 INFO dfs.FSNamesystem: BLOCK* NameSystem.delete: blk_8480406947138834451 is added to invalidSet of 10.250.18.114:50010
081110 210144 28 INFO dfs.FSNamesystem: BLOCK* NameSystem.delete: blk_8480406947138834451 is added to invalidSet of 10.250.9.207:50010
081110 210144 28 INFO dfs.FSNamesystem: BLOCK* NameSystem.delete: blk_8480406947138834451 is added to invalidSet of 10.251.198.33:50010
081110 210604 19 INFO dfs.FSDataset: Deleting block blk_8480406947138834451 file /mnt/hadoop/dfs/data/current/subdir8/blk_8480406947138834451
081110 210625 19 INFO dfs.FSDataset: Deleting block blk_8480406947138834451 file /mnt/hadoop/dfs/data/current/subdir3/blk_8480406947138834451
081110 210720 19 INFO dfs.FSDataset: Deleting block blk_8480406947138834451 file /mnt/hadoop/dfs/data/current/subdir22/blk_8480406947138834451
081111 032040 18530 INFO dfs.DataNode$DataXceiver: Receiving block blk_-562688331844140681 src: /10.251.215.16:34262 dest: /10.251.215.16:50010
081111 032040 18703 INFO dfs.DataNode$DataXceiver: Receiving block blk_-562688331844140681 src: /10.250.7.230:58672 dest: /10.250.7.230:50010
081111 032040 18756 INFO dfs.DataNode$DataXceiver: Receiving block blk_-562688331844140681 src: /10.250.7.230:42324 dest: /10.250.7.230:50010
081111 032040 31 INFO dfs.FSNamesystem: BLOCK* NameSystem.allocateBlock: /user/root/rand4/_temporary/_task_200811101024_0009_m_001465_0/part-01465. blk_-562688331844140681
081111 032119 18531 INFO dfs.DataNode$PacketResponder: PacketResponder 0 for block blk_-562688331844140681 terminating
081111 032119 18531 INFO dfs.DataNode$PacketResponder: Received block blk_-562688331844140681 of size 67108864 from /10.251.215.16
081111 032119 18704 INFO dfs.DataNode$PacketResponder: PacketResponder 2 for block blk_-562688331844140681 terminating
081111 032119 18704 INFO dfs.DataNode$PacketResponder: Received block blk_-562688331844140681 of size 67108864 from /10.250.7.230
081111 032119 18757 INFO dfs.DataNode$PacketResponder: PacketResponder 1 for block blk_-562688331844140681 terminating
081111 032119 18757 INFO dfs.DataNode$PacketResponder: Received block blk_-562688331844140681 of size 67108864 from /10.250.7.230
081111 032119 26 INFO dfs.FSNamesystem: BLOCK* NameSystem.addStoredBlock: blockMap updated: 10.251.215.16:50010 is added to blk_-562688331844140681 size 67108864
081111 032119 28 INFO dfs.FSNamesystem: BLOCK* NameSystem.addStoredBlock: blockMap updated: 10.251.111.80:50010 is added to blk_-562688331844140681 size 67108864
081111 032119 30 INFO dfs.FSNamesystem: BLOCK* NameSystem.addStoredBlock: blockMap updated: 10.250.7.230:50010 is added to blk_-562688331844140681 size 67108864
081111 044319 35 INFO dfs.FSNamesystem: BLOCK* NameSystem.delete: blk_-562688331844140681 is added to invalidSet of 10.250.7.230:50010
081111 044319 35 INFO dfs.FSNamesystem: BLOCK* NameSystem.delete: blk_-562688331844140681 is added to invalidSet of 10.251.111.80:50010
081111 044319 35 INFO dfs.FSNamesystem: BLOCK* NameSystem.delete: blk_-562688331844140681 is added to invalidSet of 10.251.215.16:50010
081111 044712 19 INFO dfs.FSDataset: Deleting block blk_-562688331844140681 file /mnt/hadoop/dfs/data/current/subdir1/blk_-562688331844140681
081111 044721 19 INFO dfs.FSDataset: Deleting block blk_-562688331844140681 file /mnt/hadoop/dfs/data/current/subdir21/blk_-562688331844140681
081111 044745 19 INFO dfs.FSDataset: Deleting block blk_-562688331844140681 file /mnt/hadoop/dfs/data/current/subdir12/blk_-562688331844140681
081110 120411 10763 INFO dfs.DataNode$DataXceiver: Receiving block blk_-8268880236845102781 src: /10.251.199.245:38875 dest: /10.251.199.245:50010
081110 120411 29 INFO dfs.FSNamesystem: BLOCK* NameSystem.allocateBlock: /user/root/randtxt2/_temporary/_task_200811101024_0002_m_001049_0/part-01049. blk_-8268880236845102781
081110 120412 10774 INFO dfs.DataNode$DataXceiver: Receiving block blk_-8268880236845102781 src: /10.251.199.245:39880 dest: /10.251.199.245:50010
081110 120413 10657 INFO dfs.DataNode$DataXceiver: Receiving block blk_-8268880236845102781 src: /10.250.6.223:56464 dest: /10.250.6.223:50010
081110 120515 33 INFO dfs.FSNamesystem: BLOCK* NameSystem.addStoredBlock: blockMap updated: 10.251.30.85:50010 is added to blk_-8268880236845102781 size 67108864
081110 120516 10658 INFO dfs.DataNode$PacketResponder: PacketResponder 0 for block blk_-8268880236845102781 terminating
081110 120516 10658 INFO dfs.DataNode$PacketResponder: Received block blk_-8268880236845102781 of size 67108864 from /10.250.6.223
081110 120516 10764 INFO dfs.DataNode$PacketResponder: PacketResponder 2 for block blk_-8268880236845102781 terminating
081110 120516 10764 INFO dfs.DataNode$PacketResponder: Received block blk_-8268880236845102781 of size 67108864 from /10.251.199.245
081110 120516 10775 INFO dfs.DataNode$PacketResponder: PacketResponder 1 for block blk_-8268880236845102781 terminating
081110 120516 10775 INFO dfs.DataNode$PacketResponder: Received block blk_-8268880236845102781 of size 67108864 from /10.251.199.245
081110 120516 30 INFO dfs.FSNamesystem: BLOCK* NameSystem.addStoredBlock: blockMap updated: 10.250.6.223:50010 is added to blk_-8268880236845102781 size 67108864
081110 120516 32 INFO dfs.FSNamesystem: BLOCK* NameSystem.addStoredBlock: blockMap updated: 10.251.199.245:50010 is added to blk_-8268880236845102781 size 67108864
081110 152305 13 INFO dfs.DataBlockScanner: Verification succeeded for blk_-8268880236845102781
081110 182145 14052 INFO dfs.DataNode$DataXceiver: 10.250.6.223:50010 Served block blk_-8268880236845102781 to /10.250.6.223
081110 182153 14043 INFO dfs.DataNode$DataXceiver: 10.250.6.223:50010 Served block blk_-8268880236845102781 to /10.251.215.70
081110 182320 14003 WARN dfs.DataNode$DataXceiver: 10.251.30.85:50010:Got exception while serving blk_-8268880236845102781 to /10.251.193.175:
081111 011753 17517 INFO dfs.DataNode$DataXceiver: 10.251.30.85:50010 Served block blk_-8268880236845102781 to /10.251.215.70
081111 011821 17640 INFO dfs.DataNode$DataXceiver: 10.250.6.223:50010 Served block blk_-8268880236845102781 to /10.250.6.223
081111 012001 17534 WARN dfs.DataNode$DataXceiver: 10.251.30.85:50010:Got exception while serving blk_-8268880236845102781 to /10.251.193.175:
081111 023024 27 INFO dfs.FSNamesystem: BLOCK* NameSystem.delete: blk_-8268880236845102781 is added to invalidSet of 10.250.6.223:50010
081111 023024 27 INFO dfs.FSNamesystem: BLOCK* NameSystem.delete: blk_-8268880236845102781 is added to invalidSet of 10.251.199.245:50010
081111 023024 27 INFO dfs.FSNamesystem: BLOCK* NameSystem.delete: blk_-8268880236845102781 is added to invalidSet of 10.251.30.85:50010
081111 023055 19 INFO dfs.FSDataset: Deleting block blk_-8268880236845102781 file /mnt/hadoop/dfs/data/current/subdir41/blk_-8268880236845102781
081111 023137 19 INFO dfs.FSDataset: Deleting block blk_-8268880236845102781 file /mnt/hadoop/dfs/data/current/subdir24/blk_-8268880236845102781
081111 023150 19 INFO dfs.FSDataset: Deleting block blk_-8268880236845102781 file /mnt/hadoop/dfs/data/current/subdir9/blk_-8268880236845102781
081110 123703 11226 INFO dfs.DataNode$DataXceiver: Receiving block blk_-8923271841000810530 src: /10.251.70.5:47512 dest: /10.251.70.5:50010
081110 123703 11311 INFO dfs.DataNode$DataXceiver: Receiving block blk_-8923271841000810530 src: /10.251.214.130:38710 dest: /10.251.214.130:50010
081110 123703 11315 INFO dfs.DataNode$DataXceiver: Receiving block blk_-8923271841000810530 src: /10.251.70.5:58047 dest: /10.251.70.5:50010
081110 123703 33 INFO dfs.FSNamesystem: BLOCK* NameSystem.allocateBlock: /user/root/randtxt2/_temporary/_task_200811101024_0002_m_001929_1/part-01929. blk_-8923271841000810530
081110 123719 11227 INFO dfs.DataNode$PacketResponder: PacketResponder 1 for block blk_-8923271841000810530 terminating
081110 123719 11227 INFO dfs.DataNode$PacketResponder: Received block blk_-8923271841000810530 of size 67108864 from /10.251.70.5
081110 123719 11312 INFO dfs.DataNode$PacketResponder: PacketResponder 0 for block blk_-8923271841000810530 terminating
081110 123719 11312 INFO dfs.DataNode$PacketResponder: Received block blk_-8923271841000810530 of size 67108864 from /10.251.214.130
081110 123719 11316 INFO dfs.DataNode$PacketResponder: PacketResponder 2 for block blk_-8923271841000810530 terminating
081110 123719 11316 INFO dfs.DataNode$PacketResponder: Received block blk_-8923271841000810530 of size 67108864 from /10.251.70.5
081110 123719 26 INFO dfs.FSNamesystem: BLOCK* NameSystem.addStoredBlock: blockMap updated: 10.251.43.210:50010 is added to blk_-8923271841000810530 size 67108864
081110 123719 26 INFO dfs.FSNamesystem: BLOCK* NameSystem.addStoredBlock: blockMap updated: 10.251.70.5:50010 is added to blk_-8923271841000810530 size 67108864
081110 123719 32 INFO dfs.FSNamesystem: BLOCK* NameSystem.addStoredBlock: blockMap updated: 10.251.214.130:50010 is added to blk_-8923271841000810530 size 67108864
081110 124052 30 INFO dfs.FSNamesystem: BLOCK* NameSystem.delete: blk_-8923271841000810530 is added to invalidSet of 10.251.214.130:50010
081110 124052 30 INFO dfs.FSNamesystem: BLOCK* NameSystem.delete: blk_-8923271841000810530 is added to invalidSet of 10.251.43.210:50010
081110 124052 30 INFO dfs.FSNamesystem: BLOCK* NameSystem.delete: blk_-8923271841000810530 is added to invalidSet of 10.251.70.5:50010
081110 124055 19 INFO dfs.FSDataset: Deleting block blk_-8923271841000810530 file /mnt/hadoop/dfs/data/current/subdir27/blk_-8923271841000810530
081110 124101 19 INFO dfs.FSDataset: Deleting block blk_-8923271841000810530 file /mnt/hadoop/dfs/data/current/subdir48/blk_-8923271841000810530
081110 124116 18 INFO dfs.FSDataset: Deleting block blk_-8923271841000810530 file /mnt/hadoop/dfs/data/current/subdir37/blk_-8923271841000810530
081111 035009 19012 INFO dfs.DataNode$DataXceiver: Receiving block blk_5227585947963693444 src: /10.251.74.227:34416 dest: /10.251.74.227:50010
081111 035009 30 INFO dfs.FSNamesystem: BLOCK* NameSystem.allocateBlock: /user/root/randtxt4/_temporary/_task_200811101024_0010_m_000434_0/part-00434. blk_5227585947963693444
081111 035010 18973 INFO dfs.DataNode$DataXceiver: Receiving block blk_5227585947963693444 src: /10.251.35.1:53814 dest: /10.251.35.1:50010
081111 035010 19076 INFO dfs.DataNode$DataXceiver: Receiving block blk_5227585947963693444 src: /10.251.74.227:40185 dest: /10.251.74.227:50010
081111 035039 18974 INFO dfs.DataNode$PacketResponder: PacketResponder 0 for block blk_5227585947963693444 terminating
081111 035039 18974 INFO dfs.DataNode$PacketResponder: Received block blk_5227585947963693444 of size 67108864 from /10.251.35.1
081111 035039 19016 INFO dfs.DataNode$PacketResponder: PacketResponder 2 for block blk_5227585947963693444 terminating
081111 035039 19016 INFO dfs.DataNode$PacketResponder: Received block blk_5227585947963693444 of size 67108864 from /10.251.74.227
081111 035039 19077 INFO dfs.DataNode$PacketResponder: PacketResponder 1 for block blk_5227585947963693444 terminating
081111 035039 19077 INFO dfs.DataNode$PacketResponder: Received block blk_5227585947963693444 of size 67108864 from /10.251.74.227
081111 035039 26 INFO dfs.FSNamesystem: BLOCK* NameSystem.addStoredBlock: blockMap updated: 10.251.109.236:50010 is added to blk_5227585947963693444 size 67108864
081111 035039 27 INFO dfs.FSNamesystem: BLOCK* NameSystem.addStoredBlock: blockMap updated: 10.251.74.227:50010 is added to blk_5227585947963693444 size 67108864
081111 035039 30 INFO dfs.FSNamesystem: BLOCK* NameSystem.addStoredBlock: blockMap updated: 10.251.35.1:50010 is added to blk_5227585947963693444 size 67108864
081109 203807 249 INFO dfs.DataNode$DataXceiver: Receiving block blk_-5431740220515630299 src: /10.251.202.209:39694 dest: /10.251.202.209:50010
081109 203807 265 INFO dfs.DataNode$DataXceiver: Receiving block blk_-5431740220515630299 src: /10.251.202.209:38481 dest: /10.251.202.209:50010
081109 203807 281 INFO dfs.DataNode$DataXceiver: Receiving block blk_-5431740220515630299 src: /10.251.111.228:34245 dest: /10.251.111.228:50010
081109 203807 28 INFO dfs.FSNamesystem: BLOCK* NameSystem.allocateBlock: /user/root/rand/_temporary/_task_200811092030_0001_m_000170_0/part-00170. blk_-5431740220515630299
081109 203844 251 INFO dfs.DataNode$PacketResponder: PacketResponder 2 for block blk_-5431740220515630299 terminating
081109 203844 251 INFO dfs.DataNode$PacketResponder: Received block blk_-5431740220515630299 of size 67108864 from /10.251.202.209
081109 203844 266 INFO dfs.DataNode$PacketResponder: PacketResponder 1 for block blk_-5431740220515630299 terminating
081109 203844 266 INFO dfs.DataNode$PacketResponder: Received block blk_-5431740220515630299 of size 67108864 from /10.251.202.209
081109 203844 27 INFO dfs.FSNamesystem: BLOCK* NameSystem.addStoredBlock: blockMap updated: 10.251.74.79:50010 is added to blk_-5431740220515630299 size 67108864
081109 203844 282 INFO dfs.DataNode$PacketResponder: PacketResponder 0 for block blk_-5431740220515630299 terminating
081109 203844 282 INFO dfs.DataNode$PacketResponder: Received block blk_-5431740220515630299 of size 67108864 from /10.251.111.228
081109 203844 28 INFO dfs.FSNamesystem: BLOCK* NameSystem.addStoredBlock: blockMap updated: 10.251.111.228:50010 is added to blk_-5431740220515630299 size 67108864
081109 203844 33 INFO dfs.FSNamesystem: BLOCK* NameSystem.addStoredBlock: blockMap updated: 10.251.202.209:50010 is added to blk_-5431740220515630299 size 67108864
081109 204156 13 INFO dfs.DataBlockScanner: Verification succeeded for blk_-5431740220515630299
081109 212328 13 INFO dfs.DataBlockScanner: Verification succeeded for blk_-5431740220515630299
081109 214530 2653 WARN dfs.DataNode$DataXceiver: 10.251.202.209:50010:Got exception while serving blk_-5431740220515630299 to /10.251.67.113:
081109 214600 2654 INFO dfs.DataNode$DataXceiver: 10.251.202.209:50010 Served block blk_-5431740220515630299 to /10.251.67.113
081109 214632 13 INFO dfs.DataBlockScanner: Verification succeeded for blk_-5431740220515630299
081109 214638 2701 WARN dfs.DataNode$DataXceiver: 10.251.202.209:50010:Got exception while serving blk_-5431740220515630299 to /10.250.10.100:
081110 103055 30 INFO dfs.FSNamesystem: BLOCK* NameSystem.delete: blk_-5431740220515630299 is added to invalidSet of 10.251.111.228:50010
081110 103055 30 INFO dfs.FSNamesystem: BLOCK* NameSystem.delete: blk_-5431740220515630299 is added to invalidSet of 10.251.202.209:50010
081110 103055 30 INFO dfs.FSNamesystem: BLOCK* NameSystem.delete: blk_-5431740220515630299 is added to invalidSet of 10.251.74.79:50010
081110 103312 19 INFO dfs.FSDataset: Deleting block blk_-5431740220515630299 file /mnt/hadoop/dfs/data/current/blk_-5431740220515630299
081110 103518 19 INFO dfs.FSDataset: Deleting block blk_-5431740220515630299 file /mnt/hadoop/dfs/data/current/blk_-5431740220515630299
081110 103527 19 INFO dfs.FSDataset: Deleting block blk_-5431740220515630299 file /mnt/hadoop/dfs/data/current/blk_-5431740220515630299
081110 001620 35 INFO dfs.FSNamesystem: BLOCK* NameSystem.allocateBlock: /user/root/sortrand/_temporary/_task_200811092030_0002_r_000316_0/part-00316. blk_-2286884068659834133
081110 001620 4350 INFO dfs.DataNode$DataXceiver: Receiving block blk_-2286884068659834133 src: /10.250.6.214:45624 dest: /10.250.6.214:50010
081110 001620 4822 INFO dfs.DataNode$DataXceiver: Receiving block blk_-2286884068659834133 src: /10.250.6.214:50924 dest: /10.250.6.214:50010
081110 001620 4932 INFO dfs.DataNode$DataXceiver: Receiving block blk_-2286884068659834133 src: /10.251.106.10:53751 dest: /10.251.106.10:50010
081110 001643 31 INFO dfs.FSNamesystem: BLOCK* NameSystem.addStoredBlock: blockMap updated: 10.251.106.10:50010 is added to blk_-2286884068659834133 size 67108864
081110 001643 34 INFO dfs.FSNamesystem: BLOCK* NameSystem.addStoredBlock: blockMap updated: 10.250.6.214:50010 is added to blk_-2286884068659834133 size 67108864
081110 001643 35 INFO dfs.FSNamesystem: BLOCK* NameSystem.addStoredBlock: blockMap updated: 10.251.31.85:50010 is added to blk_-2286884068659834133 size 67108864
081110 001643 4351 INFO dfs.DataNode$PacketResponder: PacketResponder 1 for block blk_-2286884068659834133 terminating
081110 001643 4351 INFO dfs.DataNode$PacketResponder: Received block blk_-2286884068659834133 of size 67108864 from /10.250.6.214
081110 001643 4823 INFO dfs.DataNode$PacketResponder: PacketResponder 2 for block blk_-2286884068659834133 terminating
081110 001643 4823 INFO dfs.DataNode$PacketResponder: Received block blk_-2286884068659834133 of size 67108864 from /10.250.6.214
081110 001643 4933 INFO dfs.DataNode$PacketResponder: PacketResponder 0 for block blk_-2286884068659834133 terminating
081110 001643 4933 INFO dfs.DataNode$PacketResponder: Received block blk_-2286884068659834133 of size 67108864 from /10.251.106.10
081110 103147 30 INFO dfs.FSNamesystem: BLOCK* NameSystem.delete: blk_-2286884068659834133 is added to invalidSet of 10.250.6.214:50010
081110 103147 30 INFO dfs.FSNamesystem: BLOCK* NameSystem.delete: blk_-2286884068659834133 is added to invalidSet of 10.251.106.10:50010
081110 103147 30 INFO dfs.FSNamesystem: BLOCK* NameSystem.delete: blk_-2286884068659834133 is added to invalidSet of 10.251.31.85:50010
081110 103557 19 INFO dfs.FSDataset: Deleting block blk_-2286884068659834133 file /mnt/hadoop/dfs/data/current/subdir13/blk_-2286884068659834133
081110 103602 19 INFO dfs.FSDataset: Deleting block blk_-2286884068659834133 file /mnt/hadoop/dfs/data/current/subdir59/blk_-2286884068659834133
081110 104629 27 INFO dfs.FSNamesystem: BLOCK* NameSystem.addStoredBlock: addStoredBlock request received for blk_-2286884068659834133 on 10.251.106.10:50010 size 67108864 But it does not belong to any file.
081110 104629 27 INFO dfs.FSNamesystem: BLOCK* NameSystem.addStoredBlock: blockMap updated: 10.251.106.10:50010 is added to blk_-2286884068659834133 size 67108864
081110 105006 19 INFO dfs.FSDataset: Deleting block blk_-2286884068659834133 file /mnt/hadoop/dfs/data/current/subdir5/blk_-2286884068659834133
081110 150937 12956 INFO dfs.DataNode$DataXceiver: Receiving block blk_4133211626723159701 src: /10.251.42.191:48409 dest: /10.251.42.191:50010
081110 150937 13196 INFO dfs.DataNode$DataXceiver: Receiving block blk_4133211626723159701 src: /10.251.42.191:46702 dest: /10.251.42.191:50010
081110 150937 13289 INFO dfs.DataNode$DataXceiver: Receiving block blk_4133211626723159701 src: /10.251.122.65:39888 dest: /10.251.122.65:50010
081110 150937 26 INFO dfs.FSNamesystem: BLOCK* NameSystem.allocateBlock: /user/root/sortrand2/_temporary/_task_200811101024_0003_r_000293_0/part-00293. blk_4133211626723159701
081110 151011 12957 INFO dfs.DataNode$PacketResponder: PacketResponder 1 for block blk_4133211626723159701 terminating
081110 151011 12957 INFO dfs.DataNode$PacketResponder: Received block blk_4133211626723159701 of size 67108864 from /10.251.42.191
081110 151011 13197 INFO dfs.DataNode$PacketResponder: PacketResponder 2 for block blk_4133211626723159701 terminating
081110 151011 13197 INFO dfs.DataNode$PacketResponder: Received block blk_4133211626723159701 of size 67108864 from /10.251.42.191
081110 151011 13290 INFO dfs.DataNode$PacketResponder: PacketResponder 0 for block blk_4133211626723159701 terminating
081110 151011 13290 INFO dfs.DataNode$PacketResponder: Received block blk_4133211626723159701 of size 67108864 from /10.251.122.65
081110 151011 30 INFO dfs.FSNamesystem: BLOCK* NameSystem.addStoredBlock: blockMap updated: 10.251.42.191:50010 is added to blk_4133211626723159701 size 67108864
081110 151011 31 INFO dfs.FSNamesystem: BLOCK* NameSystem.addStoredBlock: blockMap updated: 10.251.71.240:50010 is added to blk_4133211626723159701 size 67108864
081110 151011 35 INFO dfs.FSNamesystem: BLOCK* NameSystem.addStoredBlock: blockMap updated: 10.251.122.65:50010 is added to blk_4133211626723159701 size 67108864
081110 210131 28 INFO dfs.FSNamesystem: BLOCK* NameSystem.delete: blk_4133211626723159701 is added to invalidSet of 10.251.122.65:50010
081110 210131 28 INFO dfs.FSNamesystem: BLOCK* NameSystem.delete: blk_4133211626723159701 is added to invalidSet of 10.251.42.191:50010
081110 210131 28 INFO dfs.FSNamesystem: BLOCK* NameSystem.delete: blk_4133211626723159701 is added to invalidSet of 10.251.71.240:50010
081110 210545 19 INFO dfs.FSDataset: Deleting block blk_4133211626723159701 file /mnt/hadoop/dfs/data/current/subdir55/blk_4133211626723159701
081110 210553 19 INFO dfs.FSDataset: Deleting block blk_4133211626723159701 file /mnt/hadoop/dfs/data/current/subdir25/blk_4133211626723159701
081110 210557 19 INFO dfs.FSDataset: Deleting block blk_4133211626723159701 file /mnt/hadoop/dfs/data/current/subdir11/blk_4133211626723159701
081110 153621 13103 INFO dfs.DataNode$DataXceiver: Receiving block blk_4387340315034757849 src: /10.251.73.220:47011 dest: /10.251.73.220:50010
081110 153621 13335 INFO dfs.DataNode$DataXceiver: Receiving block blk_4387340315034757849 src: /10.251.198.33:60015 dest: /10.251.198.33:50010
081110 153621 13614 INFO dfs.DataNode$DataXceiver: Receiving block blk_4387340315034757849 src: /10.251.73.220:58215 dest: /10.251.73.220:50010
081110 153621 34 INFO dfs.FSNamesystem: BLOCK* NameSystem.allocateBlock: /user/root/sortrand2/_temporary/_task_200811101024_0003_r_000159_1/part-00159. blk_4387340315034757849
081110 153636 13104 INFO dfs.DataNode$PacketResponder: PacketResponder 2 for block blk_4387340315034757849 terminating
081110 153636 13104 INFO dfs.DataNode$PacketResponder: Received block blk_4387340315034757849 of size 67108864 from /10.251.73.220
081110 153636 13336 INFO dfs.DataNode$PacketResponder: PacketResponder 0 for block blk_4387340315034757849 terminating
081110 153636 13336 INFO dfs.DataNode$PacketResponder: Received block blk_4387340315034757849 of size 67108864 from /10.251.198.33
081110 153636 13615 INFO dfs.DataNode$PacketResponder: PacketResponder 1 for block blk_4387340315034757849 terminating
081110 153636 13615 INFO dfs.DataNode$PacketResponder: Received block blk_4387340315034757849 of size 67108864 from /10.251.73.220
081110 153636 28 INFO dfs.FSNamesystem: BLOCK* NameSystem.addStoredBlock: blockMap updated: 10.251.73.220:50010 is added to blk_4387340315034757849 size 67108864
081110 153636 32 INFO dfs.FSNamesystem: BLOCK* NameSystem.addStoredBlock: blockMap updated: 10.251.198.33:50010 is added to blk_4387340315034757849 size 67108864
081110 153636 35 INFO dfs.FSNamesystem: BLOCK* NameSystem.addStoredBlock: blockMap updated: 10.250.13.240:50010 is added to blk_4387340315034757849 size 67108864
081110 161515 27 INFO dfs.FSNamesystem: BLOCK* NameSystem.delete: blk_4387340315034757849 is added to invalidSet of 10.250.13.240:50010
081110 161515 27 INFO dfs.FSNamesystem: BLOCK* NameSystem.delete: blk_4387340315034757849 is added to invalidSet of 10.251.198.33:50010
081110 161515 27 INFO dfs.FSNamesystem: BLOCK* NameSystem.delete: blk_4387340315034757849 is added to invalidSet of 10.251.73.220:50010
081110 161518 19 INFO dfs.FSDataset: Deleting block blk_4387340315034757849 file /mnt/hadoop/dfs/data/current/subdir55/blk_4387340315034757849
081110 161523 19 INFO dfs.FSDataset: Deleting block blk_4387340315034757849 file /mnt/hadoop/dfs/data/current/subdir44/blk_4387340315034757849
081110 161526 19 INFO dfs.FSDataset: Deleting block blk_4387340315034757849 file /mnt/hadoop/dfs/data/current/subdir14/blk_4387340315034757849
081111 070714 22487 INFO dfs.DataNode$DataXceiver: Receiving block blk_3508783022518347332 src: /10.251.215.192:56415 dest: /10.251.215.192:50010
081111 070714 22879 INFO dfs.DataNode$DataXceiver: Receiving block blk_3508783022518347332 src: /10.251.106.37:56623 dest: /10.251.106.37:50010
081111 070714 22995 INFO dfs.DataNode$DataXceiver: Receiving block blk_3508783022518347332 src: /10.251.106.37:44263 dest: /10.251.106.37:50010
081111 070714 29 INFO dfs.FSNamesystem: BLOCK* NameSystem.allocateBlock: /user/root/rand6/_temporary/_task_200811101024_0013_m_000520_0/part-00520. blk_3508783022518347332
081111 070738 22488 INFO dfs.DataNode$PacketResponder: PacketResponder 0 for block blk_3508783022518347332 terminating
081111 070738 22488 INFO dfs.DataNode$PacketResponder: Received block blk_3508783022518347332 of size 67108864 from /10.251.215.192
081111 070738 22880 INFO dfs.DataNode$PacketResponder: PacketResponder 1 for block blk_3508783022518347332 terminating
081111 070738 22880 INFO dfs.DataNode$PacketResponder: Received block blk_3508783022518347332 of size 67108864 from /10.251.106.37
081111 070738 22996 INFO dfs.DataNode$PacketResponder: PacketResponder 2 for block blk_3508783022518347332 terminating
081111 070738 22996 INFO dfs.DataNode$PacketResponder: Received block blk_3508783022518347332 of size 67108864 from /10.251.106.37
081111 070738 26 INFO dfs.FSNamesystem: BLOCK* NameSystem.addStoredBlock: blockMap updated: 10.251.106.37:50010 is added to blk_3508783022518347332 size 67108864
081111 070738 32 INFO dfs.FSNamesystem: BLOCK* NameSystem.addStoredBlock: blockMap updated: 10.251.111.37:50010 is added to blk_3508783022518347332 size 67108864
081111 070738 35 INFO dfs.FSNamesystem: BLOCK* NameSystem.addStoredBlock: blockMap updated: 10.251.215.192:50010 is added to blk_3508783022518347332 size 67108864
081111 085912 27 INFO dfs.FSNamesystem: BLOCK* NameSystem.delete: blk_3508783022518347332 is added to invalidSet of 10.251.106.37:50010
081111 085912 27 INFO dfs.FSNamesystem: BLOCK* NameSystem.delete: blk_3508783022518347332 is added to invalidSet of 10.251.111.37:50010
081111 085912 27 INFO dfs.FSNamesystem: BLOCK* NameSystem.delete: blk_3508783022518347332 is added to invalidSet of 10.251.215.192:50010
081111 090136 19 INFO dfs.FSDataset: Deleting block blk_3508783022518347332 file /mnt/hadoop/dfs/data/current/subdir36/blk_3508783022518347332
081111 090142 19 INFO dfs.FSDataset: Deleting block blk_3508783022518347332 file /mnt/hadoop/dfs/data/current/subdir60/blk_3508783022518347332
081111 090143 19 INFO dfs.FSDataset: Deleting block blk_3508783022518347332 file /mnt/hadoop/dfs/data/current/subdir11/blk_3508783022518347332
081111 040025 19065 INFO dfs.DataNode$DataXceiver: Receiving block blk_-7483880255771251097 src: /10.250.15.67:51658 dest: /10.250.15.67:50010
081111 040025 19090 INFO dfs.DataNode$DataXceiver: Receiving block blk_-7483880255771251097 src: /10.250.15.67:55878 dest: /10.250.15.67:50010
081111 040025 19343 INFO dfs.DataNode$DataXceiver: Receiving block blk_-7483880255771251097 src: /10.251.203.166:33745 dest: /10.251.203.166:50010
081111 040025 27 INFO dfs.FSNamesystem: BLOCK* NameSystem.allocateBlock: /user/root/randtxt4/_temporary/_task_200811101024_0010_m_000487_0/part-00487. blk_-7483880255771251097
081111 040119 19066 INFO dfs.DataNode$PacketResponder: PacketResponder 2 for block blk_-7483880255771251097 terminating
081111 040119 19066 INFO dfs.DataNode$PacketResponder: Received block blk_-7483880255771251097 of size 67108864 from /10.250.15.67
081111 040119 19091 INFO dfs.DataNode$PacketResponder: PacketResponder 1 for block blk_-7483880255771251097 terminating
081111 040119 19091 INFO dfs.DataNode$PacketResponder: Received block blk_-7483880255771251097 of size 67108864 from /10.250.15.67
081111 040119 19344 INFO dfs.DataNode$PacketResponder: PacketResponder 0 for block blk_-7483880255771251097 terminating
081111 040119 19344 INFO dfs.DataNode$PacketResponder: Received block blk_-7483880255771251097 of size 67108864 from /10.251.203.166
081111 040119 29 INFO dfs.FSNamesystem: BLOCK* NameSystem.addStoredBlock: blockMap updated: 10.251.214.175:50010 is added to blk_-7483880255771251097 size 67108864
081111 040119 33 INFO dfs.FSNamesystem: BLOCK* NameSystem.addStoredBlock: blockMap updated: 10.250.15.67:50010 is added to blk_-7483880255771251097 size 67108864
081111 040119 33 INFO dfs.FSNamesystem: BLOCK* NameSystem.addStoredBlock: blockMap updated: 10.251.203.166:50010 is added to blk_-7483880255771251097 size 67108864
081110 014603 34 INFO dfs.FSNamesystem: BLOCK* NameSystem.allocateBlock: /user/root/randtxt/_temporary/_task_200811092030_0003_m_000402_0/part-00402. blk_-7265702929999678461
081110 014603 4570 INFO dfs.DataNode$DataXceiver: Receiving block blk_-7265702929999678461 src: /10.251.123.33:34851 dest: /10.251.123.33:50010
081110 014604 5702 INFO dfs.DataNode$DataXceiver: Receiving block blk_-7265702929999678461 src: /10.251.123.33:54467 dest: /10.251.123.33:50010
081110 014604 5805 INFO dfs.DataNode$DataXceiver: Receiving block blk_-7265702929999678461 src: /10.251.109.209:58204 dest: /10.251.109.209:50010
081110 014747 28 INFO dfs.FSNamesystem: BLOCK* NameSystem.addStoredBlock: blockMap updated: 10.251.123.33:50010 is added to blk_-7265702929999678461 size 28495907
081110 014747 31 INFO dfs.FSNamesystem: BLOCK* NameSystem.addStoredBlock: blockMap updated: 10.251.109.209:50010 is added to blk_-7265702929999678461 size 28495907
081110 014747 33 INFO dfs.FSNamesystem: BLOCK* NameSystem.addStoredBlock: blockMap updated: 10.251.107.227:50010 is added to blk_-7265702929999678461 size 28495907
081110 014747 4571 INFO dfs.DataNode$PacketResponder: PacketResponder 2 for block blk_-7265702929999678461 terminating
081110 014747 4571 INFO dfs.DataNode$PacketResponder: Received block blk_-7265702929999678461 of size 28495907 from /10.251.123.33
081110 014747 5703 INFO dfs.DataNode$PacketResponder: PacketResponder 1 for block blk_-7265702929999678461 terminating
081110 014747 5703 INFO dfs.DataNode$PacketResponder: Received block blk_-7265702929999678461 of size 28495907 from /10.251.123.33
081110 014747 5806 INFO dfs.DataNode$PacketResponder: PacketResponder 0 for block blk_-7265702929999678461 terminating
081110 014747 5806 INFO dfs.DataNode$PacketResponder: Received block blk_-7265702929999678461 of size 28495907 from /10.251.109.209
081110 025638 6253 WARN dfs.DataNode$DataXceiver: 10.251.109.209:50010:Got exception while serving blk_-7265702929999678461 to /10.250.14.38:
081110 061554 5632 INFO dfs.DataNode$DataXceiver: 10.251.123.33:50010 Served block blk_-7265702929999678461 to /10.251.123.33
081110 070224 5851 WARN dfs.DataNode$DataXceiver: 10.251.123.33:50010:Got exception while serving blk_-7265702929999678461 to /10.250.14.38:
081110 072545 7742 INFO dfs.DataNode$DataXceiver: 10.251.107.227:50010 Served block blk_-7265702929999678461 to /10.251.107.227
081110 081048 7913 WARN dfs.DataNode$DataXceiver: 10.251.109.209:50010:Got exception while serving blk_-7265702929999678461 to /10.250.14.38:
081110 083347 6626 INFO dfs.DataNode$DataXceiver: 10.251.123.33:50010 Served block blk_-7265702929999678461 to /10.251.123.33
081110 092255 8568 WARN dfs.DataNode$DataXceiver: 10.251.107.227:50010:Got exception while serving blk_-7265702929999678461 to /10.250.14.38:
081110 103030 34 INFO dfs.FSNamesystem: BLOCK* NameSystem.delete: blk_-7265702929999678461 is added to invalidSet of 10.251.107.227:50010
081110 103030 34 INFO dfs.FSNamesystem: BLOCK* NameSystem.delete: blk_-7265702929999678461 is added to invalidSet of 10.251.109.209:50010
081110 103030 34 INFO dfs.FSNamesystem: BLOCK* NameSystem.delete: blk_-7265702929999678461 is added to invalidSet of 10.251.123.33:50010
081110 103450 19 INFO dfs.FSDataset: Deleting block blk_-7265702929999678461 file /mnt/hadoop/dfs/data/current/subdir28/blk_-7265702929999678461
081110 103500 19 INFO dfs.FSDataset: Deleting block blk_-7265702929999678461 file /mnt/hadoop/dfs/data/current/subdir30/blk_-7265702929999678461
081110 104312 19 INFO dfs.FSDataset: Deleting block blk_-7265702929999678461 file /mnt/hadoop/dfs/data/current/subdir62/blk_-7265702929999678461
081111 052117 20760 INFO dfs.DataNode$DataXceiver: Receiving block blk_-620254302829579524 src: /10.251.65.203:48472 dest: /10.251.65.203:50010
081111 052117 20782 INFO dfs.DataNode$DataXceiver: Receiving block blk_-620254302829579524 src: /10.251.65.203:60011 dest: /10.251.65.203:50010
081111 052117 30 INFO dfs.FSNamesystem: BLOCK* NameSystem.allocateBlock: /user/root/rand5/_temporary/_task_200811101024_0011_m_001206_0/part-01206. blk_-620254302829579524
081111 052118 20651 INFO dfs.DataNode$DataXceiver: Receiving block blk_-620254302829579524 src: /10.251.29.239:57510 dest: /10.251.29.239:50010
081111 052145 20652 INFO dfs.DataNode$PacketResponder: PacketResponder 0 for block blk_-620254302829579524 terminating
081111 052145 20652 INFO dfs.DataNode$PacketResponder: Received block blk_-620254302829579524 of size 67108864 from /10.251.29.239
081111 052145 20761 INFO dfs.DataNode$PacketResponder: PacketResponder 2 for block blk_-620254302829579524 terminating
081111 052145 20761 INFO dfs.DataNode$PacketResponder: Received block blk_-620254302829579524 of size 67108864 from /10.251.65.203
081111 052145 20783 INFO dfs.DataNode$PacketResponder: PacketResponder 1 for block blk_-620254302829579524 terminating
081111 052145 20783 INFO dfs.DataNode$PacketResponder: Received block blk_-620254302829579524 of size 67108864 from /10.251.65.203
081111 052145 26 INFO dfs.FSNamesystem: BLOCK* NameSystem.addStoredBlock: blockMap updated: 10.251.65.203:50010 is added to blk_-620254302829579524 size 67108864
081111 052145 30 INFO dfs.FSNamesystem: BLOCK* NameSystem.addStoredBlock: blockMap updated: 10.251.202.209:50010 is added to blk_-620254302829579524 size 67108864
081111 052145 32 INFO dfs.FSNamesystem: BLOCK* NameSystem.addStoredBlock: blockMap updated: 10.251.29.239:50010 is added to blk_-620254302829579524 size 67108864
081111 075630 28 INFO dfs.FSNamesystem: BLOCK* NameSystem.delete: blk_-620254302829579524 is added to invalidSet of 10.251.202.209:50010
081111 075630 28 INFO dfs.FSNamesystem: BLOCK* NameSystem.delete: blk_-620254302829579524 is added to invalidSet of 10.251.29.239:50010
081111 075630 28 INFO dfs.FSNamesystem: BLOCK* NameSystem.delete: blk_-620254302829579524 is added to invalidSet of 10.251.65.203:50010
081111 075808 19 INFO dfs.FSDataset: Deleting block blk_-620254302829579524 file /mnt/hadoop/dfs/data/current/subdir5/blk_-620254302829579524
081111 075850 19 INFO dfs.FSDataset: Deleting block blk_-620254302829579524 file /mnt/hadoop/dfs/data/current/subdir3/blk_-620254302829579524
081111 075855 19 INFO dfs.FSDataset: Deleting block blk_-620254302829579524 file /mnt/hadoop/dfs/data/current/subdir14/blk_-620254302829579524
081110 224349 16328 INFO dfs.DataNode$DataXceiver: Receiving block blk_-3672576790422375640 src: /10.251.111.80:36728 dest: /10.251.111.80:50010
081110 224349 16536 INFO dfs.DataNode$DataXceiver: Receiving block blk_-3672576790422375640 src: /10.251.111.80:57552 dest: /10.251.111.80:50010
081110 224349 16637 INFO dfs.DataNode$DataXceiver: Receiving block blk_-3672576790422375640 src: /10.251.215.50:49151 dest: /10.251.215.50:50010
081110 224349 34 INFO dfs.FSNamesystem: BLOCK* NameSystem.allocateBlock: /user/root/randtxt3/_temporary/_task_200811101024_0007_m_001196_0/part-01196. blk_-3672576790422375640
081110 224428 16329 INFO dfs.DataNode$PacketResponder: PacketResponder 2 for block blk_-3672576790422375640 terminating
081110 224428 16329 INFO dfs.DataNode$PacketResponder: Received block blk_-3672576790422375640 of size 67108864 from /10.251.111.80
081110 224428 16537 INFO dfs.DataNode$PacketResponder: PacketResponder 1 for block blk_-3672576790422375640 terminating
081110 224428 16537 INFO dfs.DataNode$PacketResponder: Received block blk_-3672576790422375640 of size 67108864 from /10.251.111.80
081110 224428 16638 INFO dfs.DataNode$PacketResponder: PacketResponder 0 for block blk_-3672576790422375640 terminating
081110 224428 16638 INFO dfs.DataNode$PacketResponder: Received block blk_-3672576790422375640 of size 67108864 from /10.251.215.50
081110 224428 27 INFO dfs.FSNamesystem: BLOCK* NameSystem.addStoredBlock: blockMap updated: 10.251.111.80:50010 is added to blk_-3672576790422375640 size 67108864
081110 224428 27 INFO dfs.FSNamesystem: BLOCK* NameSystem.addStoredBlock: blockMap updated: 10.251.215.50:50010 is added to blk_-3672576790422375640 size 67108864
081110 224428 32 INFO dfs.FSNamesystem: BLOCK* NameSystem.addStoredBlock: blockMap updated: 10.251.194.245:50010 is added to blk_-3672576790422375640 size 67108864
081111 044342 29 INFO dfs.FSNamesystem: BLOCK* NameSystem.delete: blk_-3672576790422375640 is added to invalidSet of 10.251.111.80:50010
081111 044342 29 INFO dfs.FSNamesystem: BLOCK* NameSystem.delete: blk_-3672576790422375640 is added to invalidSet of 10.251.194.245:50010
081111 044342 29 INFO dfs.FSNamesystem: BLOCK* NameSystem.delete: blk_-3672576790422375640 is added to invalidSet of 10.251.215.50:50010
081111 044608 19 INFO dfs.FSDataset: Deleting block blk_-3672576790422375640 file /mnt/hadoop/dfs/data/current/subdir62/blk_-3672576790422375640
081111 044637 19 INFO dfs.FSDataset: Deleting block blk_-3672576790422375640 file /mnt/hadoop/dfs/data/current/subdir63/blk_-3672576790422375640
081111 044728 19 INFO dfs.FSDataset: Deleting block blk_-3672576790422375640 file /mnt/hadoop/dfs/data/current/subdir2/blk_-3672576790422375640
081111 033012 18255 INFO dfs.DataNode$DataXceiver: Receiving block blk_-4065856354977239585 src: /10.251.127.47:33728 dest: /10.251.127.47:50010
081111 033012 18985 INFO dfs.DataNode$DataXceiver: Receiving block blk_-4065856354977239585 src: /10.251.127.47:52367 dest: /10.251.127.47:50010
081111 033012 27 INFO dfs.FSNamesystem: BLOCK* NameSystem.allocateBlock: /user/root/rand4/_temporary/_task_200811101024_0009_m_001766_0/part-01766. blk_-4065856354977239585
081111 033014 18836 INFO dfs.DataNode$DataXceiver: Receiving block blk_-4065856354977239585 src: /10.251.91.32:42432 dest: /10.251.91.32:50010
081111 033100 18256 INFO dfs.DataNode$PacketResponder: Received block blk_-4065856354977239585 of size 67108864 from /10.251.127.47
081111 033100 18837 INFO dfs.DataNode$PacketResponder: PacketResponder 0 for block blk_-4065856354977239585 terminating
081111 033100 18837 INFO dfs.DataNode$PacketResponder: Received block blk_-4065856354977239585 of size 67108864 from /10.251.91.32
081111 033100 18986 INFO dfs.DataNode$PacketResponder: Received block blk_-4065856354977239585 of size 67108864 from /10.251.127.47
081111 033100 27 INFO dfs.FSNamesystem: BLOCK* NameSystem.addStoredBlock: blockMap updated: 10.251.91.32:50010 is added to blk_-4065856354977239585 size 67108864
081111 033100 28 INFO dfs.FSNamesystem: BLOCK* NameSystem.addStoredBlock: blockMap updated: 10.251.127.47:50010 is added to blk_-4065856354977239585 size 67108864
081111 033100 29 INFO dfs.FSNamesystem: BLOCK* NameSystem.addStoredBlock: blockMap updated: 10.251.31.180:50010 is added to blk_-4065856354977239585 size 67108864
081111 033101 18256 INFO dfs.DataNode$PacketResponder: PacketResponder 1 for block blk_-4065856354977239585 terminating
081111 033101 18986 INFO dfs.DataNode$PacketResponder: PacketResponder 2 for block blk_-4065856354977239585 terminating
081111 044322 35 INFO dfs.FSNamesystem: BLOCK* NameSystem.delete: blk_-4065856354977239585 is added to invalidSet of 10.251.127.47:50010
081111 044322 35 INFO dfs.FSNamesystem: BLOCK* NameSystem.delete: blk_-4065856354977239585 is added to invalidSet of 10.251.31.180:50010
081111 044322 35 INFO dfs.FSNamesystem: BLOCK* NameSystem.delete: blk_-4065856354977239585 is added to invalidSet of 10.251.91.32:50010
081111 044625 19 INFO dfs.FSDataset: Deleting block blk_-4065856354977239585 file /mnt/hadoop/dfs/data/current/subdir58/blk_-4065856354977239585
081111 044631 19 INFO dfs.FSDataset: Deleting block blk_-4065856354977239585 file /mnt/hadoop/dfs/data/current/subdir36/blk_-4065856354977239585
081111 044726 19 INFO dfs.FSDataset: Deleting block blk_-4065856354977239585 file /mnt/hadoop/dfs/data/current/subdir47/blk_-4065856354977239585
081109 235000 30 INFO dfs.FSNamesystem: BLOCK* NameSystem.allocateBlock: /user/root/sortrand/_temporary/_task_200811092030_0002_r_000104_0/part-00104. blk_8249668465072589324
081109 235000 4257 INFO dfs.DataNode$DataXceiver: Receiving block blk_8249668465072589324 src: /10.250.6.4:39945 dest: /10.250.6.4:50010
081109 235000 4362 INFO dfs.DataNode$DataXceiver: Receiving block blk_8249668465072589324 src: /10.250.6.4:58346 dest: /10.250.6.4:50010
081109 235000 4401 INFO dfs.DataNode$DataXceiver: Receiving block blk_8249668465072589324 src: /10.250.6.223:39992 dest: /10.250.6.223:50010
081109 235041 26 INFO dfs.FSNamesystem: BLOCK* NameSystem.addStoredBlock: blockMap updated: 10.250.6.223:50010 is added to blk_8249668465072589324 size 67108864
081109 235041 27 INFO dfs.FSNamesystem: BLOCK* NameSystem.addStoredBlock: blockMap updated: 10.250.6.4:50010 is added to blk_8249668465072589324 size 67108864
081109 235041 31 INFO dfs.FSNamesystem: BLOCK* NameSystem.addStoredBlock: blockMap updated: 10.251.71.240:50010 is added to blk_8249668465072589324 size 67108864
081109 235041 4258 INFO dfs.DataNode$PacketResponder: PacketResponder 2 for block blk_8249668465072589324 terminating
081109 235041 4258 INFO dfs.DataNode$PacketResponder: Received block blk_8249668465072589324 of size 67108864 from /10.250.6.4
081109 235041 4363 INFO dfs.DataNode$PacketResponder: PacketResponder 1 for block blk_8249668465072589324 terminating
081109 235041 4363 INFO dfs.DataNode$PacketResponder: Received block blk_8249668465072589324 of size 67108864 from /10.250.6.4
081109 235041 4402 INFO dfs.DataNode$PacketResponder: PacketResponder 0 for block blk_8249668465072589324 terminating
081109 235041 4402 INFO dfs.DataNode$PacketResponder: Received block blk_8249668465072589324 of size 67108864 from /10.250.6.223
081110 103133 30 INFO dfs.FSNamesystem: BLOCK* NameSystem.delete: blk_8249668465072589324 is added to invalidSet of 10.250.6.223:50010
081110 103133 30 INFO dfs.FSNamesystem: BLOCK* NameSystem.delete: blk_8249668465072589324 is added to invalidSet of 10.250.6.4:50010
081110 103133 30 INFO dfs.FSNamesystem: BLOCK* NameSystem.delete: blk_8249668465072589324 is added to invalidSet of 10.251.71.240:50010
081110 103704 19 INFO dfs.FSDataset: Deleting block blk_8249668465072589324 file /mnt/hadoop/dfs/data/current/subdir17/blk_8249668465072589324
081110 103826 19 INFO dfs.FSDataset: Deleting block blk_8249668465072589324 file /mnt/hadoop/dfs/data/current/subdir10/blk_8249668465072589324
081110 104155 19 INFO dfs.FSDataset: Deleting block blk_8249668465072589324 file /mnt/hadoop/dfs/data/current/subdir54/blk_8249668465072589324
081111 050418 20498 INFO dfs.DataNode$DataXceiver: Receiving block blk_7059707312284431171 src: /10.250.10.223:57797 dest: /10.250.10.223:50010
081111 050418 32 INFO dfs.FSNamesystem: BLOCK* NameSystem.allocateBlock: /user/root/rand5/_temporary/_task_200811101024_0011_m_000406_0/part-00406. blk_7059707312284431171
081111 050419 20410 INFO dfs.DataNode$DataXceiver: Receiving block blk_7059707312284431171 src: /10.251.111.209:52454 dest: /10.251.111.209:50010
081111 050419 20746 INFO dfs.DataNode$DataXceiver: Receiving block blk_7059707312284431171 src: /10.250.10.223:49672 dest: /10.250.10.223:50010
081111 050458 20411 INFO dfs.DataNode$PacketResponder: PacketResponder 0 for block blk_7059707312284431171 terminating
081111 050458 20411 INFO dfs.DataNode$PacketResponder: Received block blk_7059707312284431171 of size 67108864 from /10.251.111.209
081111 050458 20499 INFO dfs.DataNode$PacketResponder: PacketResponder 2 for block blk_7059707312284431171 terminating
081111 050458 20499 INFO dfs.DataNode$PacketResponder: Received block blk_7059707312284431171 of size 67108864 from /10.250.10.223
081111 050458 20747 INFO dfs.DataNode$PacketResponder: PacketResponder 1 for block blk_7059707312284431171 terminating
081111 050458 20747 INFO dfs.DataNode$PacketResponder: Received block blk_7059707312284431171 of size 67108864 from /10.250.10.223
081111 050458 27 INFO dfs.FSNamesystem: BLOCK* NameSystem.addStoredBlock: blockMap updated: 10.251.215.70:50010 is added to blk_7059707312284431171 size 67108864
081111 050458 31 INFO dfs.FSNamesystem: BLOCK* NameSystem.addStoredBlock: blockMap updated: 10.250.10.223:50010 is added to blk_7059707312284431171 size 67108864
081111 050458 33 INFO dfs.FSNamesystem: BLOCK* NameSystem.addStoredBlock: blockMap updated: 10.251.111.209:50010 is added to blk_7059707312284431171 size 67108864
081111 075621 28 INFO dfs.FSNamesystem: BLOCK* NameSystem.delete: blk_7059707312284431171 is added to invalidSet of 10.250.10.223:50010
081111 075621 28 INFO dfs.FSNamesystem: BLOCK* NameSystem.delete: blk_7059707312284431171 is added to invalidSet of 10.251.111.209:50010
081111 075621 28 INFO dfs.FSNamesystem: BLOCK* NameSystem.delete: blk_7059707312284431171 is added to invalidSet of 10.251.215.70:50010
081111 075823 19 INFO dfs.FSDataset: Deleting block blk_7059707312284431171 file /mnt/hadoop/dfs/data/current/subdir62/blk_7059707312284431171
081111 075928 19 INFO dfs.FSDataset: Deleting block blk_7059707312284431171 file /mnt/hadoop/dfs/data/current/subdir50/blk_7059707312284431171
081111 075941 19 INFO dfs.FSDataset: Deleting block blk_7059707312284431171 file /mnt/hadoop/dfs/data/current/subdir36/blk_7059707312284431171
081111 074148 23574 INFO dfs.DataNode$DataXceiver: Receiving block blk_1471231265441132384 src: /10.251.42.246:32979 dest: /10.251.42.246:50010
081111 074148 23655 INFO dfs.DataNode$DataXceiver: Receiving block blk_1471231265441132384 src: /10.251.30.101:33411 dest: /10.251.30.101:50010
081111 074148 23782 INFO dfs.DataNode$DataXceiver: Receiving block blk_1471231265441132384 src: /10.251.42.246:34735 dest: /10.251.42.246:50010
081111 074148 32 INFO dfs.FSNamesystem: BLOCK* NameSystem.allocateBlock: /user/root/rand6/_temporary/_task_200811101024_0013_m_001775_0/part-01775. blk_1471231265441132384
081111 074214 34 INFO dfs.FSNamesystem: BLOCK* NameSystem.addStoredBlock: blockMap updated: 10.251.89.155:50010 is added to blk_1471231265441132384 size 67108864
081111 074215 23575 INFO dfs.DataNode$PacketResponder: PacketResponder 2 for block blk_1471231265441132384 terminating
081111 074215 23575 INFO dfs.DataNode$PacketResponder: Received block blk_1471231265441132384 of size 67108864 from /10.251.42.246
081111 074215 23656 INFO dfs.DataNode$PacketResponder: PacketResponder 0 for block blk_1471231265441132384 terminating
081111 074215 23656 INFO dfs.DataNode$PacketResponder: Received block blk_1471231265441132384 of size 67108864 from /10.251.30.101
081111 074215 23783 INFO dfs.DataNode$PacketResponder: PacketResponder 1 for block blk_1471231265441132384 terminating
081111 074215 23783 INFO dfs.DataNode$PacketResponder: Received block blk_1471231265441132384 of size 67108864 from /10.251.42.246
081111 074215 30 INFO dfs.FSNamesystem: BLOCK* NameSystem.addStoredBlock: blockMap updated: 10.251.42.246:50010 is added to blk_1471231265441132384 size 67108864
081111 074215 35 INFO dfs.FSNamesystem: BLOCK* NameSystem.addStoredBlock: blockMap updated: 10.251.30.101:50010 is added to blk_1471231265441132384 size 67108864
081111 085926 27 INFO dfs.FSNamesystem: BLOCK* NameSystem.delete: blk_1471231265441132384 is added to invalidSet of 10.251.30.101:50010
081111 085926 27 INFO dfs.FSNamesystem: BLOCK* NameSystem.delete: blk_1471231265441132384 is added to invalidSet of 10.251.42.246:50010
081111 085926 27 INFO dfs.FSNamesystem: BLOCK* NameSystem.delete: blk_1471231265441132384 is added to invalidSet of 10.251.89.155:50010
081111 090147 19 INFO dfs.FSDataset: Deleting block blk_1471231265441132384 file /mnt/hadoop/dfs/data/current/subdir15/blk_1471231265441132384
081111 090150 19 INFO dfs.FSDataset: Deleting block blk_1471231265441132384 file /mnt/hadoop/dfs/data/current/subdir43/blk_1471231265441132384
081111 090202 19 INFO dfs.FSDataset: Deleting block blk_1471231265441132384 file /mnt/hadoop/dfs/data/current/subdir48/blk_1471231265441132384
081111 055854 21613 INFO dfs.DataNode$DataXceiver: Receiving block blk_-1851134134557446593 src: /10.251.199.86:39622 dest: /10.251.199.86:50010
081111 055854 21766 INFO dfs.DataNode$DataXceiver: Receiving block blk_-1851134134557446593 src: /10.251.199.86:34220 dest: /10.251.199.86:50010
081111 055854 34 INFO dfs.FSNamesystem: BLOCK* NameSystem.allocateBlock: /user/root/randtxt5/_temporary/_task_200811101024_0012_m_000064_0/part-00064. blk_-1851134134557446593
081111 055858 21618 INFO dfs.DataNode$DataXceiver: Receiving block blk_-1851134134557446593 src: /10.251.66.63:39441 dest: /10.251.66.63:50010
081111 055909 21614 INFO dfs.DataNode$PacketResponder: PacketResponder 1 for block blk_-1851134134557446593 terminating
081111 055909 21614 INFO dfs.DataNode$PacketResponder: Received block blk_-1851134134557446593 of size 28496879 from /10.251.199.86
081111 055909 21619 INFO dfs.DataNode$PacketResponder: PacketResponder 0 for block blk_-1851134134557446593 terminating
081111 055909 21619 INFO dfs.DataNode$PacketResponder: Received block blk_-1851134134557446593 of size 28496879 from /10.251.66.63
081111 055909 21769 INFO dfs.DataNode$PacketResponder: PacketResponder 2 for block blk_-1851134134557446593 terminating
081111 055909 21769 INFO dfs.DataNode$PacketResponder: Received block blk_-1851134134557446593 of size 28496879 from /10.251.199.86
081111 055909 29 INFO dfs.FSNamesystem: BLOCK* NameSystem.addStoredBlock: blockMap updated: 10.251.123.1:50010 is added to blk_-1851134134557446593 size 28496879
081111 055909 32 INFO dfs.FSNamesystem: BLOCK* NameSystem.addStoredBlock: blockMap updated: 10.251.199.86:50010 is added to blk_-1851134134557446593 size 28496879
081111 055909 34 INFO dfs.FSNamesystem: BLOCK* NameSystem.addStoredBlock: blockMap updated: 10.251.66.63:50010 is added to blk_-1851134134557446593 size 28496879
081111 065205 26 INFO dfs.FSNamesystem: BLOCK* NameSystem.delete: blk_-1851134134557446593 is added to invalidSet of 10.251.123.1:50010
081111 065205 26 INFO dfs.FSNamesystem: BLOCK* NameSystem.delete: blk_-1851134134557446593 is added to invalidSet of 10.251.199.86:50010
081111 065205 26 INFO dfs.FSNamesystem: BLOCK* NameSystem.delete: blk_-1851134134557446593 is added to invalidSet of 10.251.66.63:50010
081111 065354 18 INFO dfs.FSDataset: Deleting block blk_-1851134134557446593 file /mnt/hadoop/dfs/data/current/subdir25/blk_-1851134134557446593
081111 065419 19 INFO dfs.FSDataset: Deleting block blk_-1851134134557446593 file /mnt/hadoop/dfs/data/current/subdir12/blk_-1851134134557446593
081111 065424 19 INFO dfs.FSDataset: Deleting block blk_-1851134134557446593 file /mnt/hadoop/dfs/data/current/subdir10/blk_-1851134134557446593
081109 232833 30 INFO dfs.FSNamesystem: BLOCK* NameSystem.allocateBlock: /user/root/sortrand/_temporary/_task_200811092030_0002_r_000010_0/part-00010. blk_2750675569168564731
081109 232833 3918 INFO dfs.DataNode$DataXceiver: Receiving block blk_2750675569168564731 src: /10.250.11.100:35309 dest: /10.250.11.100:50010
081109 232833 3963 INFO dfs.DataNode$DataXceiver: Receiving block blk_2750675569168564731 src: /10.250.11.100:36424 dest: /10.250.11.100:50010
081109 232833 4050 INFO dfs.DataNode$DataXceiver: Receiving block blk_2750675569168564731 src: /10.251.74.134:55046 dest: /10.251.74.134:50010
081109 232858 32 INFO dfs.FSNamesystem: BLOCK* NameSystem.addStoredBlock: blockMap updated: 10.250.11.100:50010 is added to blk_2750675569168564731 size 67108864
081109 232858 32 INFO dfs.FSNamesystem: BLOCK* NameSystem.addStoredBlock: blockMap updated: 10.251.203.149:50010 is added to blk_2750675569168564731 size 67108864
081109 232858 34 INFO dfs.FSNamesystem: BLOCK* NameSystem.addStoredBlock: blockMap updated: 10.251.74.134:50010 is added to blk_2750675569168564731 size 67108864
081109 232858 3919 INFO dfs.DataNode$PacketResponder: PacketResponder 1 for block blk_2750675569168564731 terminating
081109 232858 3919 INFO dfs.DataNode$PacketResponder: Received block blk_2750675569168564731 of size 67108864 from /10.250.11.100
081109 232858 3964 INFO dfs.DataNode$PacketResponder: PacketResponder 2 for block blk_2750675569168564731 terminating
081109 232858 3964 INFO dfs.DataNode$PacketResponder: Received block blk_2750675569168564731 of size 67108864 from /10.250.11.100
081109 232858 4051 INFO dfs.DataNode$PacketResponder: PacketResponder 0 for block blk_2750675569168564731 terminating
081109 232858 4051 INFO dfs.DataNode$PacketResponder: Received block blk_2750675569168564731 of size 67108864 from /10.251.74.134
081110 042627 13 INFO dfs.DataBlockScanner: Verification succeeded for blk_2750675569168564731
081110 103126 30 INFO dfs.FSNamesystem: BLOCK* NameSystem.delete: blk_2750675569168564731 is added to invalidSet of 10.250.11.100:50010
081110 103126 30 INFO dfs.FSNamesystem: BLOCK* NameSystem.delete: blk_2750675569168564731 is added to invalidSet of 10.251.203.149:50010
081110 103126 30 INFO dfs.FSNamesystem: BLOCK* NameSystem.delete: blk_2750675569168564731 is added to invalidSet of 10.251.74.134:50010
081110 103542 19 INFO dfs.FSDataset: Deleting block blk_2750675569168564731 file /mnt/hadoop/dfs/data/current/subdir6/blk_2750675569168564731
081110 103618 19 INFO dfs.FSDataset: Deleting block blk_2750675569168564731 file /mnt/hadoop/dfs/data/current/subdir7/blk_2750675569168564731
081110 103711 19 INFO dfs.FSDataset: Deleting block blk_2750675569168564731 file /mnt/hadoop/dfs/data/current/subdir29/blk_2750675569168564731
081111 035015 19363 INFO dfs.DataNode$DataXceiver: Receiving block blk_5355300721291027330 src: /10.251.215.192:46309 dest: /10.251.215.192:50010
081111 035015 30 INFO dfs.FSNamesystem: BLOCK* NameSystem.allocateBlock: /user/root/randtxt4/_temporary/_task_200811101024_0010_m_000191_0/part-00191. blk_5355300721291027330
081111 035016 19544 INFO dfs.DataNode$DataXceiver: Receiving block blk_5355300721291027330 src: /10.251.215.192:54038 dest: /10.251.215.192:50010
081111 035017 19417 INFO dfs.DataNode$DataXceiver: Receiving block blk_5355300721291027330 src: /10.251.67.225:33918 dest: /10.251.67.225:50010
081111 035108 19364 INFO dfs.DataNode$PacketResponder: PacketResponder 2 for block blk_5355300721291027330 terminating
081111 035108 19364 INFO dfs.DataNode$PacketResponder: Received block blk_5355300721291027330 of size 67108864 from /10.251.215.192
081111 035108 19419 INFO dfs.DataNode$PacketResponder: PacketResponder 0 for block blk_5355300721291027330 terminating
081111 035108 19419 INFO dfs.DataNode$PacketResponder: Received block blk_5355300721291027330 of size 67108864 from /10.251.67.225
081111 035108 19545 INFO dfs.DataNode$PacketResponder: PacketResponder 1 for block blk_5355300721291027330 terminating
081111 035108 19545 INFO dfs.DataNode$PacketResponder: Received block blk_5355300721291027330 of size 67108864 from /10.251.215.192
081111 035108 27 INFO dfs.FSNamesystem: BLOCK* NameSystem.addStoredBlock: blockMap updated: 10.251.67.225:50010 is added to blk_5355300721291027330 size 67108864
081111 035108 32 INFO dfs.FSNamesystem: BLOCK* NameSystem.addStoredBlock: blockMap updated: 10.251.126.83:50010 is added to blk_5355300721291027330 size 67108864
081111 035108 35 INFO dfs.FSNamesystem: BLOCK* NameSystem.addStoredBlock: blockMap updated: 10.251.215.192:50010 is added to blk_5355300721291027330 size 67108864
081111 103439 26647 INFO dfs.DataNode$DataXceiver: Receiving block blk_-6899755957435082886 src: /10.251.39.192:50797 dest: /10.251.39.192:50010
081111 103439 26797 INFO dfs.DataNode$DataXceiver: Receiving block blk_-6899755957435082886 src: /10.251.39.192:34049 dest: /10.251.39.192:50010
081111 103439 26934 INFO dfs.DataNode$DataXceiver: Receiving block blk_-6899755957435082886 src: /10.250.14.38:60316 dest: /10.250.14.38:50010
081111 103439 34 INFO dfs.FSNamesystem: BLOCK* NameSystem.allocateBlock: /user/root/randtxt9/_temporary/_task_200811101024_0016_m_001184_0/part-01184. blk_-6899755957435082886
081111 103515 26648 INFO dfs.DataNode$PacketResponder: PacketResponder 2 for block blk_-6899755957435082886 terminating
081111 103515 26648 INFO dfs.DataNode$PacketResponder: Received block blk_-6899755957435082886 of size 67108864 from /10.251.39.192
081111 103515 26798 INFO dfs.DataNode$PacketResponder: PacketResponder 1 for block blk_-6899755957435082886 terminating
081111 103515 26798 INFO dfs.DataNode$PacketResponder: Received block blk_-6899755957435082886 of size 67108864 from /10.251.39.192
081111 103515 26935 INFO dfs.DataNode$PacketResponder: PacketResponder 0 for block blk_-6899755957435082886 terminating
081111 103515 26935 INFO dfs.DataNode$PacketResponder: Received block blk_-6899755957435082886 of size 67108864 from /10.250.14.38
081111 103515 30 INFO dfs.FSNamesystem: BLOCK* NameSystem.addStoredBlock: blockMap updated: 10.250.14.38:50010 is added to blk_-6899755957435082886 size 67108864
081111 103515 35 INFO dfs.FSNamesystem: BLOCK* NameSystem.addStoredBlock: blockMap updated: 10.251.38.197:50010 is added to blk_-6899755957435082886 size 67108864
081111 103516 34 INFO dfs.FSNamesystem: BLOCK* NameSystem.addStoredBlock: blockMap updated: 10.251.39.192:50010 is added to blk_-6899755957435082886 size 67108864
081111 110439 26 INFO dfs.FSNamesystem: BLOCK* NameSystem.delete: blk_-6899755957435082886 is added to invalidSet of 10.250.14.38:50010
081111 110439 26 INFO dfs.FSNamesystem: BLOCK* NameSystem.delete: blk_-6899755957435082886 is added to invalidSet of 10.251.38.197:50010
081111 110439 26 INFO dfs.FSNamesystem: BLOCK* NameSystem.delete: blk_-6899755957435082886 is added to invalidSet of 10.251.39.192:50010
081111 110526 19 INFO dfs.FSDataset: Deleting block blk_-6899755957435082886 file /mnt/hadoop/dfs/data/current/subdir6/blk_-6899755957435082886
081111 110545 18 INFO dfs.FSDataset: Deleting block blk_-6899755957435082886 file /mnt/hadoop/dfs/data/current/subdir23/blk_-6899755957435082886
081111 110547 19 INFO dfs.FSDataset: Deleting block blk_-6899755957435082886 file /mnt/hadoop/dfs/data/current/subdir58/blk_-6899755957435082886
081111 050019 20394 INFO dfs.DataNode$DataXceiver: Receiving block blk_7655522954255117212 src: /10.250.10.176:40037 dest: /10.250.10.176:50010
081111 050019 31 INFO dfs.FSNamesystem: BLOCK* NameSystem.allocateBlock: /user/root/rand5/_temporary/_task_200811101024_0011_m_000189_0/part-00189. blk_7655522954255117212
081111 050020 20405 INFO dfs.DataNode$DataXceiver: Receiving block blk_7655522954255117212 src: /10.250.10.176:52960 dest: /10.250.10.176:50010
081111 050021 20383 INFO dfs.DataNode$DataXceiver: Receiving block blk_7655522954255117212 src: /10.251.90.239:57448 dest: /10.251.90.239:50010
081111 050117 20384 INFO dfs.DataNode$PacketResponder: PacketResponder 0 for block blk_7655522954255117212 terminating
081111 050117 20384 INFO dfs.DataNode$PacketResponder: Received block blk_7655522954255117212 of size 67108864 from /10.251.90.239
081111 050117 20399 INFO dfs.DataNode$PacketResponder: PacketResponder 2 for block blk_7655522954255117212 terminating
081111 050117 20399 INFO dfs.DataNode$PacketResponder: Received block blk_7655522954255117212 of size 67108864 from /10.250.10.176
081111 050117 20408 INFO dfs.DataNode$PacketResponder: PacketResponder 1 for block blk_7655522954255117212 terminating
081111 050117 20408 INFO dfs.DataNode$PacketResponder: Received block blk_7655522954255117212 of size 67108864 from /10.250.10.176
081111 050117 28 INFO dfs.FSNamesystem: BLOCK* NameSystem.addStoredBlock: blockMap updated: 10.251.67.4:50010 is added to blk_7655522954255117212 size 67108864
081111 050117 29 INFO dfs.FSNamesystem: BLOCK* NameSystem.addStoredBlock: blockMap updated: 10.251.90.239:50010 is added to blk_7655522954255117212 size 67108864
081111 050117 33 INFO dfs.FSNamesystem: BLOCK* NameSystem.addStoredBlock: blockMap updated: 10.250.10.176:50010 is added to blk_7655522954255117212 size 67108864
081111 075618 28 INFO dfs.FSNamesystem: BLOCK* NameSystem.delete: blk_7655522954255117212 is added to invalidSet of 10.250.10.176:50010
081111 075618 28 INFO dfs.FSNamesystem: BLOCK* NameSystem.delete: blk_7655522954255117212 is added to invalidSet of 10.251.67.4:50010
081111 075618 28 INFO dfs.FSNamesystem: BLOCK* NameSystem.delete: blk_7655522954255117212 is added to invalidSet of 10.251.90.239:50010
081111 075926 18 INFO dfs.FSDataset: Deleting block blk_7655522954255117212 file /mnt/hadoop/dfs/data/current/subdir37/blk_7655522954255117212
081111 075949 19 INFO dfs.FSDataset: Deleting block blk_7655522954255117212 file /mnt/hadoop/dfs/data/current/subdir33/blk_7655522954255117212
081111 080126 19 INFO dfs.FSDataset: Deleting block blk_7655522954255117212 file /mnt/hadoop/dfs/data/current/subdir12/blk_7655522954255117212
081110 212714 31 INFO dfs.FSNamesystem: BLOCK* NameSystem.allocateBlock: /user/root/rand3/_temporary/_task_200811101024_0005_m_000987_0/part-00987. blk_828496328027665218
081110 212715 14532 INFO dfs.DataNode$DataXceiver: Receiving block blk_828496328027665218 src: /10.251.199.150:43489 dest: /10.251.199.150:50010
081110 212715 14847 INFO dfs.DataNode$DataXceiver: Receiving block blk_828496328027665218 src: /10.251.75.228:33219 dest: /10.251.75.228:50010
081110 212715 15044 INFO dfs.DataNode$DataXceiver: Receiving block blk_828496328027665218 src: /10.251.199.150:40919 dest: /10.251.199.150:50010
081110 212807 14533 INFO dfs.DataNode$PacketResponder: PacketResponder 1 for block blk_828496328027665218 terminating
081110 212807 14533 INFO dfs.DataNode$PacketResponder: Received block blk_828496328027665218 of size 67108864 from /10.251.199.150
081110 212807 14848 INFO dfs.DataNode$PacketResponder: PacketResponder 0 for block blk_828496328027665218 terminating
081110 212807 14848 INFO dfs.DataNode$PacketResponder: Received block blk_828496328027665218 of size 67108864 from /10.251.75.228
081110 212807 15047 INFO dfs.DataNode$PacketResponder: PacketResponder 2 for block blk_828496328027665218 terminating
081110 212807 15047 INFO dfs.DataNode$PacketResponder: Received block blk_828496328027665218 of size 67108864 from /10.251.199.150
081110 212807 31 INFO dfs.FSNamesystem: BLOCK* NameSystem.addStoredBlock: blockMap updated: 10.251.75.228:50010 is added to blk_828496328027665218 size 67108864
081110 212807 33 INFO dfs.FSNamesystem: BLOCK* NameSystem.addStoredBlock: blockMap updated: 10.251.199.150:50010 is added to blk_828496328027665218 size 67108864
081110 212807 35 INFO dfs.FSNamesystem: BLOCK* NameSystem.addStoredBlock: blockMap updated: 10.251.197.161:50010 is added to blk_828496328027665218 size 67108864
081110 220647 32 INFO dfs.FSNamesystem: BLOCK* NameSystem.delete: blk_828496328027665218 is added to invalidSet of 10.251.197.161:50010
081110 220647 32 INFO dfs.FSNamesystem: BLOCK* NameSystem.delete: blk_828496328027665218 is added to invalidSet of 10.251.199.150:50010
081110 220647 32 INFO dfs.FSNamesystem: BLOCK* NameSystem.delete: blk_828496328027665218 is added to invalidSet of 10.251.75.228:50010
081110 220853 19 INFO dfs.FSDataset: Deleting block blk_828496328027665218 file /mnt/hadoop/dfs/data/current/subdir42/blk_828496328027665218
081110 220859 19 INFO dfs.FSDataset: Deleting block blk_828496328027665218 file /mnt/hadoop/dfs/data/current/subdir46/blk_828496328027665218
081110 220906 19 INFO dfs.FSDataset: Deleting block blk_828496328027665218 file /mnt/hadoop/dfs/data/current/subdir63/blk_828496328027665218
081109 204542 31 INFO dfs.FSNamesystem: BLOCK* NameSystem.allocateBlock: /user/root/rand/_temporary/_task_200811092030_0001_m_000429_0/part-00429. blk_5977538983139229874
081109 204542 490 INFO dfs.DataNode$DataXceiver: Receiving block blk_5977538983139229874 src: /10.250.11.100:44638 dest: /10.250.11.100:50010
081109 204542 529 INFO dfs.DataNode$DataXceiver: Receiving block blk_5977538983139229874 src: /10.251.39.160:60315 dest: /10.251.39.160:50010
081109 204542 616 INFO dfs.DataNode$DataXceiver: Receiving block blk_5977538983139229874 src: /10.250.11.100:53982 dest: /10.250.11.100:50010
081109 204746 26 INFO dfs.FSNamesystem: BLOCK* NameSystem.addStoredBlock: blockMap updated: 10.251.39.160:50010 is added to blk_5977538983139229874 size 67108864
081109 204746 27 INFO dfs.FSNamesystem: BLOCK* NameSystem.addStoredBlock: blockMap updated: 10.250.11.100:50010 is added to blk_5977538983139229874 size 67108864
081109 204746 29 INFO dfs.FSNamesystem: BLOCK* NameSystem.addStoredBlock: blockMap updated: 10.251.195.52:50010 is added to blk_5977538983139229874 size 67108864
081109 204746 491 INFO dfs.DataNode$PacketResponder: PacketResponder 1 for block blk_5977538983139229874 terminating
081109 204746 491 INFO dfs.DataNode$PacketResponder: Received block blk_5977538983139229874 of size 67108864 from /10.250.11.100
081109 204746 530 INFO dfs.DataNode$PacketResponder: PacketResponder 0 for block blk_5977538983139229874 terminating
081109 204746 530 INFO dfs.DataNode$PacketResponder: Received block blk_5977538983139229874 of size 67108864 from /10.251.39.160
081109 204746 617 INFO dfs.DataNode$PacketResponder: PacketResponder 2 for block blk_5977538983139229874 terminating
081109 204746 617 INFO dfs.DataNode$PacketResponder: Received block blk_5977538983139229874 of size 67108864 from /10.250.11.100
081109 213908 2187 WARN dfs.DataNode$DataXceiver: 10.251.39.160:50010:Got exception while serving blk_5977538983139229874 to /10.251.110.68:
081109 215157 2966 WARN dfs.DataNode$DataXceiver: 10.250.11.100:50010:Got exception while serving blk_5977538983139229874 to /10.251.193.224:
081109 215214 2973 WARN dfs.DataNode$DataXceiver: 10.250.11.100:50010:Got exception while serving blk_5977538983139229874 to /10.251.107.98:
081109 215224 2560 WARN dfs.DataNode$DataXceiver: 10.251.39.160:50010:Got exception while serving blk_5977538983139229874 to /10.251.39.160:
081109 215238 2985 WARN dfs.DataNode$DataXceiver: 10.250.11.100:50010:Got exception while serving blk_5977538983139229874 to /10.250.19.16:
081109 215252 2992 WARN dfs.DataNode$DataXceiver: 10.250.11.100:50010:Got exception while serving blk_5977538983139229874 to /10.251.122.65:
081109 215256 2907 WARN dfs.DataNode$DataXceiver: 10.251.195.52:50010:Got exception while serving blk_5977538983139229874 to /10.251.74.134:
081109 215304 3000 WARN dfs.DataNode$DataXceiver: 10.250.11.100:50010:Got exception while serving blk_5977538983139229874 to /10.251.203.4:
081109 215317 2917 WARN dfs.DataNode$DataXceiver: 10.251.195.52:50010:Got exception while serving blk_5977538983139229874 to /10.250.7.244:
081109 215320 2919 WARN dfs.DataNode$DataXceiver: 10.251.195.52:50010:Got exception while serving blk_5977538983139229874 to /10.251.43.192:
081109 215321 2920 WARN dfs.DataNode$DataXceiver: 10.251.195.52:50010:Got exception while serving blk_5977538983139229874 to /10.251.90.134:
081109 215321 2921 WARN dfs.DataNode$DataXceiver: 10.251.195.52:50010:Got exception while serving blk_5977538983139229874 to /10.251.90.239:
081109 215324 3014 WARN dfs.DataNode$DataXceiver: 10.250.11.100:50010:Got exception while serving blk_5977538983139229874 to /10.251.91.84:
081109 215333 2587 WARN dfs.DataNode$DataXceiver: 10.251.39.160:50010:Got exception while serving blk_5977538983139229874 to /10.251.91.159:
081109 215355 2597 WARN dfs.DataNode$DataXceiver: 10.251.39.160:50010:Got exception while serving blk_5977538983139229874 to /10.251.70.5:
081109 215412 2557 INFO dfs.DataNode$DataXceiver: 10.251.39.160:50010 Served block blk_5977538983139229874 to /10.251.39.160
081109 223206 13 INFO dfs.DataBlockScanner: Verification succeeded for blk_5977538983139229874
081110 035020 13 INFO dfs.DataBlockScanner: Verification succeeded for blk_5977538983139229874
081110 103059 30 INFO dfs.FSNamesystem: BLOCK* NameSystem.delete: blk_5977538983139229874 is added to invalidSet of 10.250.11.100:50010
081110 103059 30 INFO dfs.FSNamesystem: BLOCK* NameSystem.delete: blk_5977538983139229874 is added to invalidSet of 10.251.195.52:50010
081110 103059 30 INFO dfs.FSNamesystem: BLOCK* NameSystem.delete: blk_5977538983139229874 is added to invalidSet of 10.251.39.160:50010
081110 103701 19 INFO dfs.FSDataset: Deleting block blk_5977538983139229874 file /mnt/hadoop/dfs/data/current/subdir39/blk_5977538983139229874
081110 103754 19 INFO dfs.FSDataset: Deleting block blk_5977538983139229874 file /mnt/hadoop/dfs/data/current/subdir22/blk_5977538983139229874
081110 105220 19 INFO dfs.FSDataset: Deleting block blk_5977538983139229874 file /mnt/hadoop/dfs/data/current/blk_5977538983139229874
081111 100520 26101 INFO dfs.DataNode$DataXceiver: Receiving block blk_-3450957923103165931 src: /10.251.73.188:46899 dest: /10.251.73.188:50010
081111 100520 27 INFO dfs.FSNamesystem: BLOCK* NameSystem.allocateBlock: /user/root/randtxt9/_temporary/_task_200811101024_0016_m_000091_0/part-00091. blk_-3450957923103165931
081111 100523 25926 INFO dfs.DataNode$DataXceiver: Receiving block blk_-3450957923103165931 src: /10.251.75.143:39393 dest: /10.251.75.143:50010
081111 100523 26362 INFO dfs.DataNode$DataXceiver: Receiving block blk_-3450957923103165931 src: /10.251.73.188:59972 dest: /10.251.73.188:50010
081111 100636 25927 INFO dfs.DataNode$PacketResponder: PacketResponder 0 for block blk_-3450957923103165931 terminating
081111 100636 25927 INFO dfs.DataNode$PacketResponder: Received block blk_-3450957923103165931 of size 67108864 from /10.251.75.143
081111 100636 26102 INFO dfs.DataNode$PacketResponder: PacketResponder 2 for block blk_-3450957923103165931 terminating
081111 100636 26102 INFO dfs.DataNode$PacketResponder: Received block blk_-3450957923103165931 of size 67108864 from /10.251.73.188
081111 100636 26363 INFO dfs.DataNode$PacketResponder: PacketResponder 1 for block blk_-3450957923103165931 terminating
081111 100636 26363 INFO dfs.DataNode$PacketResponder: Received block blk_-3450957923103165931 of size 67108864 from /10.251.73.188
081111 100636 29 INFO dfs.FSNamesystem: BLOCK* NameSystem.addStoredBlock: blockMap updated: 10.251.73.188:50010 is added to blk_-3450957923103165931 size 67108864
081111 100636 29 INFO dfs.FSNamesystem: BLOCK* NameSystem.addStoredBlock: blockMap updated: 10.251.75.143:50010 is added to blk_-3450957923103165931 size 67108864
081111 100636 30 INFO dfs.FSNamesystem: BLOCK* NameSystem.addStoredBlock: blockMap updated: 10.251.198.196:50010 is added to blk_-3450957923103165931 size 67108864
081111 110426 26 INFO dfs.FSNamesystem: BLOCK* NameSystem.delete: blk_-3450957923103165931 is added to invalidSet of 10.251.198.196:50010
081111 110426 26 INFO dfs.FSNamesystem: BLOCK* NameSystem.delete: blk_-3450957923103165931 is added to invalidSet of 10.251.73.188:50010
081111 110426 26 INFO dfs.FSNamesystem: BLOCK* NameSystem.delete: blk_-3450957923103165931 is added to invalidSet of 10.251.75.143:50010
081111 110532 19 INFO dfs.FSDataset: Deleting block blk_-3450957923103165931 file /mnt/hadoop/dfs/data/current/subdir51/blk_-3450957923103165931
081111 110537 19 INFO dfs.FSDataset: Deleting block blk_-3450957923103165931 file /mnt/hadoop/dfs/data/current/subdir9/blk_-3450957923103165931
081111 110540 19 INFO dfs.FSDataset: Deleting block blk_-3450957923103165931 file /mnt/hadoop/dfs/data/current/subdir62/blk_-3450957923103165931
081111 081742 24065 INFO dfs.DataNode$DataXceiver: Receiving block blk_-3461103315762525520 src: /10.251.195.70:47495 dest: /10.251.195.70:50010
081111 081742 24169 INFO dfs.DataNode$DataXceiver: Receiving block blk_-3461103315762525520 src: /10.251.43.21:37427 dest: /10.251.43.21:50010
081111 081742 24238 INFO dfs.DataNode$DataXceiver: Receiving block blk_-3461103315762525520 src: /10.251.195.70:59445 dest: /10.251.195.70:50010
081111 081742 26 INFO dfs.FSNamesystem: BLOCK* NameSystem.allocateBlock: /user/root/rand7/_temporary/_task_200811101024_0014_m_000702_0/part-00702. blk_-3461103315762525520
081111 081814 24066 INFO dfs.DataNode$PacketResponder: PacketResponder 1 for block blk_-3461103315762525520 terminating
081111 081814 24066 INFO dfs.DataNode$PacketResponder: Received block blk_-3461103315762525520 of size 67108864 from /10.251.195.70
081111 081814 24170 INFO dfs.DataNode$PacketResponder: PacketResponder 0 for block blk_-3461103315762525520 terminating
081111 081814 24170 INFO dfs.DataNode$PacketResponder: Received block blk_-3461103315762525520 of size 67108864 from /10.251.43.21
081111 081814 24239 INFO dfs.DataNode$PacketResponder: PacketResponder 2 for block blk_-3461103315762525520 terminating
081111 081814 24239 INFO dfs.DataNode$PacketResponder: Received block blk_-3461103315762525520 of size 67108864 from /10.251.195.70
081111 081814 27 INFO dfs.FSNamesystem: BLOCK* NameSystem.addStoredBlock: blockMap updated: 10.251.43.21:50010 is added to blk_-3461103315762525520 size 67108864
081111 081814 28 INFO dfs.FSNamesystem: BLOCK* NameSystem.addStoredBlock: blockMap updated: 10.251.195.70:50010 is added to blk_-3461103315762525520 size 67108864
081111 081814 29 INFO dfs.FSNamesystem: BLOCK* NameSystem.addStoredBlock: blockMap updated: 10.251.110.8:50010 is added to blk_-3461103315762525520 size 67108864
081111 033840 18718 INFO dfs.DataNode$DataXceiver: Receiving block blk_-1410090597088544488 src: /10.251.25.237:57065 dest: /10.251.25.237:50010
081111 033840 19001 INFO dfs.DataNode$DataXceiver: Receiving block blk_-1410090597088544488 src: /10.251.25.237:50732 dest: /10.251.25.237:50010
081111 033840 34 INFO dfs.FSNamesystem: BLOCK* NameSystem.allocateBlock: /user/root/randtxt4/_temporary/_task_200811101024_0010_m_000051_0/part-00051. blk_-1410090597088544488
081111 033841 19073 INFO dfs.DataNode$DataXceiver: Receiving block blk_-1410090597088544488 src: /10.251.66.192:59660 dest: /10.251.66.192:50010
081111 033931 18719 INFO dfs.DataNode$PacketResponder: PacketResponder 2 for block blk_-1410090597088544488 terminating
081111 033931 18719 INFO dfs.DataNode$PacketResponder: Received block blk_-1410090597088544488 of size 67108864 from /10.251.25.237
081111 033931 19002 INFO dfs.DataNode$PacketResponder: PacketResponder 1 for block blk_-1410090597088544488 terminating
081111 033931 19002 INFO dfs.DataNode$PacketResponder: Received block blk_-1410090597088544488 of size 67108864 from /10.251.25.237
081111 033931 19074 INFO dfs.DataNode$PacketResponder: PacketResponder 0 for block blk_-1410090597088544488 terminating
081111 033931 19074 INFO dfs.DataNode$PacketResponder: Received block blk_-1410090597088544488 of size 67108864 from /10.251.66.192
081111 033931 26 INFO dfs.FSNamesystem: BLOCK* NameSystem.addStoredBlock: blockMap updated: 10.251.66.192:50010 is added to blk_-1410090597088544488 size 67108864
081111 033931 28 INFO dfs.FSNamesystem: BLOCK* NameSystem.addStoredBlock: blockMap updated: 10.251.110.196:50010 is added to blk_-1410090597088544488 size 67108864
081111 033931 35 INFO dfs.FSNamesystem: BLOCK* NameSystem.addStoredBlock: blockMap updated: 10.251.25.237:50010 is added to blk_-1410090597088544488 size 67108864
081110 211426 14807 INFO dfs.DataNode$DataXceiver: Receiving block blk_-2771736571391419770 src: /10.250.10.144:55380 dest: /10.250.10.144:50010
081110 211426 14856 INFO dfs.DataNode$DataXceiver: Receiving block blk_-2771736571391419770 src: /10.250.6.223:56129 dest: /10.250.6.223:50010
081110 211426 14889 INFO dfs.DataNode$DataXceiver: Receiving block blk_-2771736571391419770 src: /10.250.6.223:40844 dest: /10.250.6.223:50010
081110 211426 28 INFO dfs.FSNamesystem: BLOCK* NameSystem.allocateBlock: /user/root/rand3/_temporary/_task_200811101024_0005_m_000283_0/part-00283. blk_-2771736571391419770
081110 211529 14808 INFO dfs.DataNode$PacketResponder: PacketResponder 0 for block blk_-2771736571391419770 terminating
081110 211529 14808 INFO dfs.DataNode$PacketResponder: Received block blk_-2771736571391419770 of size 67108864 from /10.250.10.144
081110 211529 14890 INFO dfs.DataNode$PacketResponder: PacketResponder 1 for block blk_-2771736571391419770 terminating
081110 211529 14890 INFO dfs.DataNode$PacketResponder: Received block blk_-2771736571391419770 of size 67108864 from /10.250.6.223
081110 211529 32 INFO dfs.FSNamesystem: BLOCK* NameSystem.addStoredBlock: blockMap updated: 10.251.75.143:50010 is added to blk_-2771736571391419770 size 67108864
081110 211529 35 INFO dfs.FSNamesystem: BLOCK* NameSystem.addStoredBlock: blockMap updated: 10.250.10.144:50010 is added to blk_-2771736571391419770 size 67108864
081110 211530 14857 INFO dfs.DataNode$PacketResponder: PacketResponder 2 for block blk_-2771736571391419770 terminating
081110 211530 14857 INFO dfs.DataNode$PacketResponder: Received block blk_-2771736571391419770 of size 67108864 from /10.250.6.223
081110 211530 35 INFO dfs.FSNamesystem: BLOCK* NameSystem.addStoredBlock: blockMap updated: 10.250.6.223:50010 is added to blk_-2771736571391419770 size 67108864
081110 220639 32 INFO dfs.FSNamesystem: BLOCK* NameSystem.delete: blk_-2771736571391419770 is added to invalidSet of 10.250.10.144:50010
081110 220639 32 INFO dfs.FSNamesystem: BLOCK* NameSystem.delete: blk_-2771736571391419770 is added to invalidSet of 10.250.6.223:50010
081110 220639 32 INFO dfs.FSNamesystem: BLOCK* NameSystem.delete: blk_-2771736571391419770 is added to invalidSet of 10.251.75.143:50010
081110 220910 19 INFO dfs.FSDataset: Deleting block blk_-2771736571391419770 file /mnt/hadoop/dfs/data/current/subdir56/blk_-2771736571391419770
081110 220917 19 INFO dfs.FSDataset: Deleting block blk_-2771736571391419770 file /mnt/hadoop/dfs/data/current/subdir53/blk_-2771736571391419770
081110 220958 19 INFO dfs.FSDataset: Deleting block blk_-2771736571391419770 file /mnt/hadoop/dfs/data/current/subdir53/blk_-2771736571391419770
081111 062137 21404 INFO dfs.DataNode$DataXceiver: Receiving block blk_9008762168186420809 src: /10.251.89.155:58218 dest: /10.251.89.155:50010
081111 062137 21963 INFO dfs.DataNode$DataXceiver: Receiving block blk_9008762168186420809 src: /10.251.91.32:38368 dest: /10.251.91.32:50010
081111 062137 22141 INFO dfs.DataNode$DataXceiver: Receiving block blk_9008762168186420809 src: /10.251.89.155:44590 dest: /10.251.89.155:50010
081111 062137 27 INFO dfs.FSNamesystem: BLOCK* NameSystem.allocateBlock: /user/root/randtxt5/_temporary/_task_200811101024_0012_m_000866_0/part-00866. blk_9008762168186420809
081111 062214 21405 INFO dfs.DataNode$PacketResponder: PacketResponder 1 for block blk_9008762168186420809 terminating
081111 062214 21405 INFO dfs.DataNode$PacketResponder: Received block blk_9008762168186420809 of size 67108864 from /10.251.89.155
081111 062214 21964 INFO dfs.DataNode$PacketResponder: PacketResponder 0 for block blk_9008762168186420809 terminating
081111 062214 21964 INFO dfs.DataNode$PacketResponder: Received block blk_9008762168186420809 of size 67108864 from /10.251.91.32
081111 062214 22142 INFO dfs.DataNode$PacketResponder: PacketResponder 2 for block blk_9008762168186420809 terminating
081111 062214 22142 INFO dfs.DataNode$PacketResponder: Received block blk_9008762168186420809 of size 67108864 from /10.251.89.155
081111 062214 26 INFO dfs.FSNamesystem: BLOCK* NameSystem.addStoredBlock: blockMap updated: 10.251.194.213:50010 is added to blk_9008762168186420809 size 67108864
081111 062214 29 INFO dfs.FSNamesystem: BLOCK* NameSystem.addStoredBlock: blockMap updated: 10.251.91.32:50010 is added to blk_9008762168186420809 size 67108864
081111 062214 30 INFO dfs.FSNamesystem: BLOCK* NameSystem.addStoredBlock: blockMap updated: 10.251.89.155:50010 is added to blk_9008762168186420809 size 67108864
081111 065214 26 INFO dfs.FSNamesystem: BLOCK* NameSystem.delete: blk_9008762168186420809 is added to invalidSet of 10.251.194.213:50010
081111 065214 26 INFO dfs.FSNamesystem: BLOCK* NameSystem.delete: blk_9008762168186420809 is added to invalidSet of 10.251.89.155:50010
081111 065214 26 INFO dfs.FSNamesystem: BLOCK* NameSystem.delete: blk_9008762168186420809 is added to invalidSet of 10.251.91.32:50010
081111 065518 19 INFO dfs.FSDataset: Deleting block blk_9008762168186420809 file /mnt/hadoop/dfs/data/current/subdir39/blk_9008762168186420809
081111 065650 19 INFO dfs.FSDataset: Deleting block blk_9008762168186420809 file /mnt/hadoop/dfs/data/current/subdir54/blk_9008762168186420809
081111 065838 19 INFO dfs.FSDataset: Deleting block blk_9008762168186420809 file /mnt/hadoop/dfs/data/current/subdir3/blk_9008762168186420809
081110 015735 26 INFO dfs.FSNamesystem: BLOCK* NameSystem.allocateBlock: /user/root/randtxt/_temporary/_task_200811092030_0003_m_001650_0/part-01650. blk_-291585442126106923
081110 015735 6184 INFO dfs.DataNode$DataXceiver: Receiving block blk_-291585442126106923 src: /10.251.39.242:46365 dest: /10.251.39.242:50010
081110 015736 6132 INFO dfs.DataNode$DataXceiver: Receiving block blk_-291585442126106923 src: /10.251.39.242:35958 dest: /10.251.39.242:50010
081110 015736 6149 INFO dfs.DataNode$DataXceiver: Receiving block blk_-291585442126106923 src: /10.251.90.239:42723 dest: /10.251.90.239:50010
081110 015805 26 INFO dfs.FSNamesystem: BLOCK* NameSystem.addStoredBlock: blockMap updated: 10.251.39.242:50010 is added to blk_-291585442126106923 size 67108864
081110 015805 31 INFO dfs.FSNamesystem: BLOCK* NameSystem.addStoredBlock: blockMap updated: 10.251.90.239:50010 is added to blk_-291585442126106923 size 67108864
081110 015805 32 INFO dfs.FSNamesystem: BLOCK* NameSystem.addStoredBlock: blockMap updated: 10.251.106.50:50010 is added to blk_-291585442126106923 size 67108864
081110 015805 6133 INFO dfs.DataNode$PacketResponder: PacketResponder 1 for block blk_-291585442126106923 terminating
081110 015805 6133 INFO dfs.DataNode$PacketResponder: Received block blk_-291585442126106923 of size 67108864 from /10.251.39.242
081110 015805 6150 INFO dfs.DataNode$PacketResponder: PacketResponder 0 for block blk_-291585442126106923 terminating
081110 015805 6150 INFO dfs.DataNode$PacketResponder: Received block blk_-291585442126106923 of size 67108864 from /10.251.90.239
081110 015805 6186 INFO dfs.DataNode$PacketResponder: PacketResponder 2 for block blk_-291585442126106923 terminating
081110 015805 6186 INFO dfs.DataNode$PacketResponder: Received block blk_-291585442126106923 of size 67108864 from /10.251.39.242
081110 052657 7126 INFO dfs.DataNode$DataXceiver: 10.251.106.50:50010 Served block blk_-291585442126106923 to /10.251.106.50
081110 052826 7004 INFO dfs.DataNode$DataXceiver: 10.251.90.239:50010 Served block blk_-291585442126106923 to /10.251.111.37
081110 052902 7133 WARN dfs.DataNode$DataXceiver: 10.251.106.50:50010:Got exception while serving blk_-291585442126106923 to /10.251.110.196:
081110 071929 7786 INFO dfs.DataNode$DataXceiver: 10.251.90.239:50010 Served block blk_-291585442126106923 to /10.251.90.239
081110 071952 7869 INFO dfs.DataNode$DataXceiver: 10.251.106.50:50010 Served block blk_-291585442126106923 to /10.251.111.37
081110 072004 7883 WARN dfs.DataNode$DataXceiver: 10.251.39.242:50010:Got exception while serving blk_-291585442126106923 to /10.251.110.196:
081110 082747 8411 INFO dfs.DataNode$DataXceiver: 10.251.90.239:50010 Served block blk_-291585442126106923 to /10.251.90.239
081110 082802 8504 INFO dfs.DataNode$DataXceiver: 10.251.106.50:50010 Served block blk_-291585442126106923 to /10.251.111.37
081110 082813 8513 WARN dfs.DataNode$DataXceiver: 10.251.106.50:50010:Got exception while serving blk_-291585442126106923 to /10.251.110.196:
081110 103046 34 INFO dfs.FSNamesystem: BLOCK* NameSystem.delete: blk_-291585442126106923 is added to invalidSet of 10.251.106.50:50010
081110 103046 34 INFO dfs.FSNamesystem: BLOCK* NameSystem.delete: blk_-291585442126106923 is added to invalidSet of 10.251.39.242:50010
081110 103046 34 INFO dfs.FSNamesystem: BLOCK* NameSystem.delete: blk_-291585442126106923 is added to invalidSet of 10.251.90.239:50010
081110 103500 19 INFO dfs.FSDataset: Deleting block blk_-291585442126106923 file /mnt/hadoop/dfs/data/current/subdir36/blk_-291585442126106923
081110 103544 19 INFO dfs.FSDataset: Deleting block blk_-291585442126106923 file /mnt/hadoop/dfs/data/current/subdir31/blk_-291585442126106923
081110 103640 18 INFO dfs.FSDataset: Deleting block blk_-291585442126106923 file /mnt/hadoop/dfs/data/current/subdir46/blk_-291585442126106923
081110 103858 8892 INFO dfs.DataNode$DataXceiver: Receiving block blk_5556708330451316360 src: /10.251.203.166:36654 dest: /10.251.203.166:50010
081110 103859 26 INFO dfs.FSNamesystem: BLOCK* NameSystem.allocateBlock: /user/root/rand/_temporary/_task_200811101024_0001_m_000205_0/part-00205. blk_5556708330451316360
081110 103859 9010 INFO dfs.DataNode$DataXceiver: Receiving block blk_5556708330451316360 src: /10.251.125.174:52061 dest: /10.251.125.174:50010
081110 103859 9056 INFO dfs.DataNode$DataXceiver: Receiving block blk_5556708330451316360 src: /10.251.203.166:37605 dest: /10.251.203.166:50010
081110 103936 9011 INFO dfs.DataNode$PacketResponder: PacketResponder 0 for block blk_5556708330451316360 terminating
081110 103936 9011 INFO dfs.DataNode$PacketResponder: Received block blk_5556708330451316360 of size 67108864 from /10.251.125.174
081110 103937 29 INFO dfs.FSNamesystem: BLOCK* NameSystem.addStoredBlock: blockMap updated: 10.251.203.166:50010 is added to blk_5556708330451316360 size 67108864
081110 103937 29 INFO dfs.FSNamesystem: BLOCK* NameSystem.addStoredBlock: blockMap updated: 10.251.214.67:50010 is added to blk_5556708330451316360 size 67108864
081110 103937 30 INFO dfs.FSNamesystem: BLOCK* NameSystem.addStoredBlock: blockMap updated: 10.251.125.174:50010 is added to blk_5556708330451316360 size 67108864
081110 103937 8894 INFO dfs.DataNode$PacketResponder: PacketResponder 2 for block blk_5556708330451316360 terminating
081110 103937 8894 INFO dfs.DataNode$PacketResponder: Received block blk_5556708330451316360 of size 67108864 from /10.251.203.166
081110 103937 9057 INFO dfs.DataNode$PacketResponder: PacketResponder 1 for block blk_5556708330451316360 terminating
081110 103937 9057 INFO dfs.DataNode$PacketResponder: Received block blk_5556708330451316360 of size 67108864 from /10.251.203.166
081110 105725 13 INFO dfs.DataBlockScanner: Verification succeeded for blk_5556708330451316360
081110 124830 11204 WARN dfs.DataNode$DataXceiver: 10.251.203.166:50010:Got exception while serving blk_5556708330451316360 to /10.251.193.175:
081110 124905 11207 INFO dfs.DataNode$DataXceiver: 10.251.203.166:50010 Served block blk_5556708330451316360 to /10.251.193.175
081110 124907 11469 WARN dfs.DataNode$DataXceiver: 10.251.214.67:50010:Got exception while serving blk_5556708330451316360 to /10.251.107.196:
081110 125632 13 INFO dfs.DataBlockScanner: Verification succeeded for blk_5556708330451316360
081110 143457 13 INFO dfs.DataBlockScanner: Verification succeeded for blk_5556708330451316360
081110 210140 28 INFO dfs.FSNamesystem: BLOCK* NameSystem.delete: blk_5556708330451316360 is added to invalidSet of 10.251.125.174:50010
081110 210140 28 INFO dfs.FSNamesystem: BLOCK* NameSystem.delete: blk_5556708330451316360 is added to invalidSet of 10.251.203.166:50010
081110 210140 28 INFO dfs.FSNamesystem: BLOCK* NameSystem.delete: blk_5556708330451316360 is added to invalidSet of 10.251.214.67:50010
081110 210514 19 INFO dfs.FSDataset: Deleting block blk_5556708330451316360 file /mnt/hadoop/dfs/data/current/blk_5556708330451316360
081110 210603 19 INFO dfs.FSDataset: Deleting block blk_5556708330451316360 file /mnt/hadoop/dfs/data/current/blk_5556708330451316360
081110 210612 19 INFO dfs.FSDataset: Deleting block blk_5556708330451316360 file /mnt/hadoop/dfs/data/current/blk_5556708330451316360
081110 223052 16078 INFO dfs.DataNode$DataXceiver: Receiving block blk_8865772377328794078 src: /10.250.15.198:54143 dest: /10.250.15.198:50010
081110 223052 26 INFO dfs.FSNamesystem: BLOCK* NameSystem.allocateBlock: /user/root/randtxt3/_temporary/_task_200811101024_0007_m_000636_0/part-00636. blk_8865772377328794078
081110 223055 16123 INFO dfs.DataNode$DataXceiver: Receiving block blk_8865772377328794078 src: /10.251.38.53:34244 dest: /10.251.38.53:50010
081110 223055 16312 INFO dfs.DataNode$DataXceiver: Receiving block blk_8865772377328794078 src: /10.250.15.198:36306 dest: /10.250.15.198:50010
081110 223110 16079 INFO dfs.DataNode$PacketResponder: PacketResponder 2 for block blk_8865772377328794078 terminating
081110 223110 16079 INFO dfs.DataNode$PacketResponder: Received block blk_8865772377328794078 of size 28487976 from /10.250.15.198
081110 223110 16124 INFO dfs.DataNode$PacketResponder: PacketResponder 0 for block blk_8865772377328794078 terminating
081110 223110 16124 INFO dfs.DataNode$PacketResponder: Received block blk_8865772377328794078 of size 28487976 from /10.251.38.53
081110 223110 16313 INFO dfs.DataNode$PacketResponder: PacketResponder 1 for block blk_8865772377328794078 terminating
081110 223110 16313 INFO dfs.DataNode$PacketResponder: Received block blk_8865772377328794078 of size 28487976 from /10.250.15.198
081110 223110 28 INFO dfs.FSNamesystem: BLOCK* NameSystem.addStoredBlock: blockMap updated: 10.250.15.198:50010 is added to blk_8865772377328794078 size 28487976
081110 223110 34 INFO dfs.FSNamesystem: BLOCK* NameSystem.addStoredBlock: blockMap updated: 10.251.38.53:50010 is added to blk_8865772377328794078 size 28487976
081110 223110 35 INFO dfs.FSNamesystem: BLOCK* NameSystem.addStoredBlock: blockMap updated: 10.251.202.209:50010 is added to blk_8865772377328794078 size 28487976
081111 044335 29 INFO dfs.FSNamesystem: BLOCK* NameSystem.delete: blk_8865772377328794078 is added to invalidSet of 10.250.15.198:50010
081111 044335 29 INFO dfs.FSNamesystem: BLOCK* NameSystem.delete: blk_8865772377328794078 is added to invalidSet of 10.251.202.209:50010
081111 044335 29 INFO dfs.FSNamesystem: BLOCK* NameSystem.delete: blk_8865772377328794078 is added to invalidSet of 10.251.38.53:50010
081111 044841 19 INFO dfs.FSDataset: Deleting block blk_8865772377328794078 file /mnt/hadoop/dfs/data/current/subdir43/blk_8865772377328794078
081111 044902 18 INFO dfs.FSDataset: Deleting block blk_8865772377328794078 file /mnt/hadoop/dfs/data/current/subdir57/blk_8865772377328794078
081111 044938 19 INFO dfs.FSDataset: Deleting block blk_8865772377328794078 file /mnt/hadoop/dfs/data/current/subdir11/blk_8865772377328794078
081110 212607 14911 INFO dfs.DataNode$DataXceiver: Receiving block blk_5237608951383236585 src: /10.250.13.188:54823 dest: /10.250.13.188:50010
081110 212607 14963 INFO dfs.DataNode$DataXceiver: Receiving block blk_5237608951383236585 src: /10.251.38.197:51031 dest: /10.251.38.197:50010
081110 212607 15083 INFO dfs.DataNode$DataXceiver: Receiving block blk_5237608951383236585 src: /10.250.13.188:40625 dest: /10.250.13.188:50010
081110 212607 31 INFO dfs.FSNamesystem: BLOCK* NameSystem.allocateBlock: /user/root/rand3/_temporary/_task_200811101024_0005_m_000631_0/part-00631. blk_5237608951383236585
081110 212657 14913 INFO dfs.DataNode$PacketResponder: PacketResponder 2 for block blk_5237608951383236585 terminating
081110 212657 14913 INFO dfs.DataNode$PacketResponder: Received block blk_5237608951383236585 of size 67108864 from /10.250.13.188
081110 212657 14964 INFO dfs.DataNode$PacketResponder: PacketResponder 0 for block blk_5237608951383236585 terminating
081110 212657 14964 INFO dfs.DataNode$PacketResponder: Received block blk_5237608951383236585 of size 67108864 from /10.251.38.197
081110 212657 15085 INFO dfs.DataNode$PacketResponder: PacketResponder 1 for block blk_5237608951383236585 terminating
081110 212657 15085 INFO dfs.DataNode$PacketResponder: Received block blk_5237608951383236585 of size 67108864 from /10.250.13.188
081110 212657 28 INFO dfs.FSNamesystem: BLOCK* NameSystem.addStoredBlock: blockMap updated: 10.251.125.237:50010 is added to blk_5237608951383236585 size 67108864
081110 212657 29 INFO dfs.FSNamesystem: BLOCK* NameSystem.addStoredBlock: blockMap updated: 10.250.13.188:50010 is added to blk_5237608951383236585 size 67108864
081110 212657 32 INFO dfs.FSNamesystem: BLOCK* NameSystem.addStoredBlock: blockMap updated: 10.251.38.197:50010 is added to blk_5237608951383236585 size 67108864
081110 220643 32 INFO dfs.FSNamesystem: BLOCK* NameSystem.delete: blk_5237608951383236585 is added to invalidSet of 10.250.13.188:50010
081110 220643 32 INFO dfs.FSNamesystem: BLOCK* NameSystem.delete: blk_5237608951383236585 is added to invalidSet of 10.251.125.237:50010
081110 220643 32 INFO dfs.FSNamesystem: BLOCK* NameSystem.delete: blk_5237608951383236585 is added to invalidSet of 10.251.38.197:50010
081110 220902 19 INFO dfs.FSDataset: Deleting block blk_5237608951383236585 file /mnt/hadoop/dfs/data/current/subdir26/blk_5237608951383236585
081110 220929 19 INFO dfs.FSDataset: Deleting block blk_5237608951383236585 file /mnt/hadoop/dfs/data/current/subdir60/blk_5237608951383236585
081110 220932 19 INFO dfs.FSDataset: Deleting block blk_5237608951383236585 file /mnt/hadoop/dfs/data/current/subdir51/blk_5237608951383236585
081110 010333 33 INFO dfs.FSNamesystem: BLOCK* NameSystem.allocateBlock: /user/root/randtxt/_temporary/_task_200811092030_0003_m_000364_0/part-00364. blk_-1951607179258059023
081110 010333 4880 INFO dfs.DataNode$DataXceiver: Receiving block blk_-1951607179258059023 src: /10.251.203.179:34183 dest: /10.251.203.179:50010
081110 010334 4946 INFO dfs.DataNode$DataXceiver: Receiving block blk_-1951607179258059023 src: /10.251.203.179:49461 dest: /10.251.203.179:50010
081110 010334 5170 INFO dfs.DataNode$DataXceiver: Receiving block blk_-1951607179258059023 src: /10.251.125.193:46958 dest: /10.251.125.193:50010
081110 010410 27 INFO dfs.FSNamesystem: BLOCK* NameSystem.addStoredBlock: blockMap updated: 10.250.5.237:50010 is added to blk_-1951607179258059023 size 67108864
081110 010410 5171 INFO dfs.DataNode$PacketResponder: PacketResponder 0 for block blk_-1951607179258059023 terminating
081110 010410 5171 INFO dfs.DataNode$PacketResponder: Received block blk_-1951607179258059023 of size 67108864 from /10.251.125.193
081110 010411 26 INFO dfs.FSNamesystem: BLOCK* NameSystem.addStoredBlock: blockMap updated: 10.251.125.193:50010 is added to blk_-1951607179258059023 size 67108864
081110 010411 31 INFO dfs.FSNamesystem: BLOCK* NameSystem.addStoredBlock: blockMap updated: 10.251.203.179:50010 is added to blk_-1951607179258059023 size 67108864
081110 010411 4881 INFO dfs.DataNode$PacketResponder: PacketResponder 2 for block blk_-1951607179258059023 terminating
081110 010411 4881 INFO dfs.DataNode$PacketResponder: Received block blk_-1951607179258059023 of size 67108864 from /10.251.203.179
081110 010411 4947 INFO dfs.DataNode$PacketResponder: PacketResponder 1 for block blk_-1951607179258059023 terminating
081110 010411 4947 INFO dfs.DataNode$PacketResponder: Received block blk_-1951607179258059023 of size 67108864 from /10.251.203.179
081110 024658 6317 INFO dfs.DataNode$DataXceiver: 10.251.125.193:50010 Served block blk_-1951607179258059023 to /10.251.125.193
081110 025443 6189 WARN dfs.DataNode$DataXceiver: 10.251.203.179:50010:Got exception while serving blk_-1951607179258059023 to /10.250.7.32:
081110 025502 6181 INFO dfs.DataNode$DataXceiver: 10.251.203.179:50010 Served block blk_-1951607179258059023 to /10.251.203.179
081110 070036 7341 INFO dfs.DataNode$DataXceiver: 10.251.125.193:50010 Served block blk_-1951607179258059023 to /10.251.125.193
081110 070110 7351 WARN dfs.DataNode$DataXceiver: 10.251.125.193:50010:Got exception while serving blk_-1951607179258059023 to /10.250.7.32:
081110 070119 7521 INFO dfs.DataNode$DataXceiver: 10.250.5.237:50010 Served block blk_-1951607179258059023 to /10.250.17.177
081110 080858 8017 INFO dfs.DataNode$DataXceiver: 10.251.125.193:50010 Served block blk_-1951607179258059023 to /10.251.125.193
081110 080948 7785 WARN dfs.DataNode$DataXceiver: 10.251.203.179:50010:Got exception while serving blk_-1951607179258059023 to /10.251.203.179:
081110 081000 7783 INFO dfs.DataNode$DataXceiver: 10.251.203.179:50010 Served block blk_-1951607179258059023 to /10.250.17.177
081110 092111 8647 INFO dfs.DataNode$DataXceiver: 10.251.125.193:50010 Served block blk_-1951607179258059023 to /10.251.125.193
081110 092203 8866 WARN dfs.DataNode$DataXceiver: 10.250.5.237:50010:Got exception while serving blk_-1951607179258059023 to /10.250.7.32:
081110 092220 8402 INFO dfs.DataNode$DataXceiver: 10.251.203.179:50010 Served block blk_-1951607179258059023 to /10.251.203.179
081110 103030 34 INFO dfs.FSNamesystem: BLOCK* NameSystem.delete: blk_-1951607179258059023 is added to invalidSet of 10.250.5.237:50010
081110 103030 34 INFO dfs.FSNamesystem: BLOCK* NameSystem.delete: blk_-1951607179258059023 is added to invalidSet of 10.251.125.193:50010
081110 103030 34 INFO dfs.FSNamesystem: BLOCK* NameSystem.delete: blk_-1951607179258059023 is added to invalidSet of 10.251.203.179:50010
081110 103503 19 INFO dfs.FSDataset: Deleting block blk_-1951607179258059023 file /mnt/hadoop/dfs/data/current/subdir43/blk_-1951607179258059023
081110 103525 19 INFO dfs.FSDataset: Deleting block blk_-1951607179258059023 file /mnt/hadoop/dfs/data/current/subdir18/blk_-1951607179258059023
081110 103551 18 INFO dfs.FSDataset: Deleting block blk_-1951607179258059023 file /mnt/hadoop/dfs/data/current/subdir51/blk_-1951607179258059023
081110 224811 16272 INFO dfs.DataNode$DataXceiver: Receiving block blk_3002930673064296962 src: /10.250.7.146:51352 dest: /10.250.7.146:50010
081110 224811 16416 INFO dfs.DataNode$DataXceiver: Receiving block blk_3002930673064296962 src: /10.250.5.237:54032 dest: /10.250.5.237:50010
081110 224811 16731 INFO dfs.DataNode$DataXceiver: Receiving block blk_3002930673064296962 src: /10.250.5.237:32805 dest: /10.250.5.237:50010
081110 224811 27 INFO dfs.FSNamesystem: BLOCK* NameSystem.allocateBlock: /user/root/randtxt3/_temporary/_task_200811101024_0007_m_001427_0/part-01427. blk_3002930673064296962
081110 224850 16273 INFO dfs.DataNode$PacketResponder: PacketResponder 0 for block blk_3002930673064296962 terminating
081110 224850 16273 INFO dfs.DataNode$PacketResponder: Received block blk_3002930673064296962 of size 67108864 from /10.250.7.146
081110 224850 32 INFO dfs.FSNamesystem: BLOCK* NameSystem.addStoredBlock: blockMap updated: 10.251.90.64:50010 is added to blk_3002930673064296962 size 67108864
081110 224851 16419 INFO dfs.DataNode$PacketResponder: PacketResponder 1 for block blk_3002930673064296962 terminating
081110 224851 16419 INFO dfs.DataNode$PacketResponder: Received block blk_3002930673064296962 of size 67108864 from /10.250.5.237
081110 224851 16732 INFO dfs.DataNode$PacketResponder: PacketResponder 2 for block blk_3002930673064296962 terminating
081110 224851 16732 INFO dfs.DataNode$PacketResponder: Received block blk_3002930673064296962 of size 67108864 from /10.250.5.237
081110 224851 33 INFO dfs.FSNamesystem: BLOCK* NameSystem.addStoredBlock: blockMap updated: 10.250.7.146:50010 is added to blk_3002930673064296962 size 67108864
081110 224851 35 INFO dfs.FSNamesystem: BLOCK* NameSystem.addStoredBlock: blockMap updated: 10.250.5.237:50010 is added to blk_3002930673064296962 size 67108864
081111 044344 29 INFO dfs.FSNamesystem: BLOCK* NameSystem.delete: blk_3002930673064296962 is added to invalidSet of 10.250.5.237:50010
081111 044344 29 INFO dfs.FSNamesystem: BLOCK* NameSystem.delete: blk_3002930673064296962 is added to invalidSet of 10.250.7.146:50010
081111 044344 29 INFO dfs.FSNamesystem: BLOCK* NameSystem.delete: blk_3002930673064296962 is added to invalidSet of 10.251.90.64:50010
081111 044725 19 INFO dfs.FSDataset: Deleting block blk_3002930673064296962 file /mnt/hadoop/dfs/data/current/subdir60/blk_3002930673064296962
081111 044746 19 INFO dfs.FSDataset: Deleting block blk_3002930673064296962 file /mnt/hadoop/dfs/data/current/subdir31/blk_3002930673064296962
081111 044808 19 INFO dfs.FSDataset: Deleting block blk_3002930673064296962 file /mnt/hadoop/dfs/data/current/subdir41/blk_3002930673064296962
081110 113848 10365 INFO dfs.DataNode$DataXceiver: Receiving block blk_-7038573926980553613 src: /10.251.197.226:32843 dest: /10.251.197.226:50010
081110 113848 29 INFO dfs.FSNamesystem: BLOCK* NameSystem.allocateBlock: /user/root/randtxt2/_temporary/_task_200811101024_0002_m_000024_0/part-00024. blk_-7038573926980553613
081110 113849 10222 INFO dfs.DataNode$DataXceiver: Receiving block blk_-7038573926980553613 src: /10.251.197.226:54685 dest: /10.251.197.226:50010
081110 113853 10205 INFO dfs.DataNode$DataXceiver: Receiving block blk_-7038573926980553613 src: /10.251.91.159:56841 dest: /10.251.91.159:50010
081110 113937 10206 INFO dfs.DataNode$PacketResponder: PacketResponder 0 for block blk_-7038573926980553613 terminating
081110 113937 10206 INFO dfs.DataNode$PacketResponder: Received block blk_-7038573926980553613 of size 67108864 from /10.251.91.159
081110 113937 10223 INFO dfs.DataNode$PacketResponder: PacketResponder 1 for block blk_-7038573926980553613 terminating
081110 113937 10223 INFO dfs.DataNode$PacketResponder: Received block blk_-7038573926980553613 of size 67108864 from /10.251.197.226
081110 113937 10366 INFO dfs.DataNode$PacketResponder: PacketResponder 2 for block blk_-7038573926980553613 terminating
081110 113937 10366 INFO dfs.DataNode$PacketResponder: Received block blk_-7038573926980553613 of size 67108864 from /10.251.197.226
081110 113937 26 INFO dfs.FSNamesystem: BLOCK* NameSystem.addStoredBlock: blockMap updated: 10.251.197.226:50010 is added to blk_-7038573926980553613 size 67108864
081110 113937 26 INFO dfs.FSNamesystem: BLOCK* NameSystem.addStoredBlock: blockMap updated: 10.251.67.4:50010 is added to blk_-7038573926980553613 size 67108864
081110 113937 32 INFO dfs.FSNamesystem: BLOCK* NameSystem.addStoredBlock: blockMap updated: 10.251.91.159:50010 is added to blk_-7038573926980553613 size 67108864
081110 161832 13555 INFO dfs.DataNode$DataXceiver: 10.251.197.226:50010 Served block blk_-7038573926980553613 to /10.251.65.203
081110 161854 13443 INFO dfs.DataNode$DataXceiver: 10.251.91.159:50010 Served block blk_-7038573926980553613 to /10.251.91.159
081110 162138 13575 WARN dfs.DataNode$DataXceiver: 10.251.197.226:50010:Got exception while serving blk_-7038573926980553613 to /10.251.197.226:
081110 231555 17137 INFO dfs.DataNode$DataXceiver: 10.251.197.226:50010 Served block blk_-7038573926980553613 to /10.251.65.203
081110 231618 16917 INFO dfs.DataNode$DataXceiver: 10.251.91.159:50010 Served block blk_-7038573926980553613 to /10.251.91.159
081110 231922 17162 WARN dfs.DataNode$DataXceiver: 10.251.197.226:50010:Got exception while serving blk_-7038573926980553613 to /10.251.111.80:
081111 023009 27 INFO dfs.FSNamesystem: BLOCK* NameSystem.delete: blk_-7038573926980553613 is added to invalidSet of 10.251.197.226:50010
081111 023009 27 INFO dfs.FSNamesystem: BLOCK* NameSystem.delete: blk_-7038573926980553613 is added to invalidSet of 10.251.67.4:50010
081111 023009 27 INFO dfs.FSNamesystem: BLOCK* NameSystem.delete: blk_-7038573926980553613 is added to invalidSet of 10.251.91.159:50010
081111 023143 19 INFO dfs.FSDataset: Deleting block blk_-7038573926980553613 file /mnt/hadoop/dfs/data/current/subdir15/blk_-7038573926980553613
081111 023149 19 INFO dfs.FSDataset: Deleting block blk_-7038573926980553613 file /mnt/hadoop/dfs/data/current/subdir50/blk_-7038573926980553613
081111 023150 19 INFO dfs.FSDataset: Deleting block blk_-7038573926980553613 file /mnt/hadoop/dfs/data/current/subdir39/blk_-7038573926980553613
081109 234802 35 INFO dfs.FSNamesystem: BLOCK* NameSystem.allocateBlock: /user/root/sortrand/_temporary/_task_200811092030_0002_r_000313_0/part-00313. blk_-5794778981380469440
081109 234802 4242 INFO dfs.DataNode$DataXceiver: Receiving block blk_-5794778981380469440 src: /10.251.73.220:41099 dest: /10.251.73.220:50010
081109 234802 4250 INFO dfs.DataNode$DataXceiver: Receiving block blk_-5794778981380469440 src: /10.250.7.32:48619 dest: /10.250.7.32:50010
081109 234802 4294 INFO dfs.DataNode$DataXceiver: Receiving block blk_-5794778981380469440 src: /10.250.7.32:33977 dest: /10.250.7.32:50010
081109 234838 31 INFO dfs.FSNamesystem: BLOCK* NameSystem.addStoredBlock: blockMap updated: 10.251.73.220:50010 is added to blk_-5794778981380469440 size 67108864
081109 234838 32 INFO dfs.FSNamesystem: BLOCK* NameSystem.addStoredBlock: blockMap updated: 10.250.7.32:50010 is added to blk_-5794778981380469440 size 67108864
081109 234838 34 INFO dfs.FSNamesystem: BLOCK* NameSystem.addStoredBlock: blockMap updated: 10.251.110.68:50010 is added to blk_-5794778981380469440 size 67108864
081109 234838 4243 INFO dfs.DataNode$PacketResponder: PacketResponder 0 for block blk_-5794778981380469440 terminating
081109 234838 4243 INFO dfs.DataNode$PacketResponder: Received block blk_-5794778981380469440 of size 67108864 from /10.251.73.220
081109 234838 4251 INFO dfs.DataNode$PacketResponder: PacketResponder 1 for block blk_-5794778981380469440 terminating
081109 234838 4251 INFO dfs.DataNode$PacketResponder: Received block blk_-5794778981380469440 of size 67108864 from /10.250.7.32
081109 234838 4295 INFO dfs.DataNode$PacketResponder: PacketResponder 2 for block blk_-5794778981380469440 terminating
081109 234838 4295 INFO dfs.DataNode$PacketResponder: Received block blk_-5794778981380469440 of size 67108864 from /10.250.7.32
081110 103147 30 INFO dfs.FSNamesystem: BLOCK* NameSystem.delete: blk_-5794778981380469440 is added to invalidSet of 10.250.7.32:50010
081110 103147 30 INFO dfs.FSNamesystem: BLOCK* NameSystem.delete: blk_-5794778981380469440 is added to invalidSet of 10.251.110.68:50010
081110 103147 30 INFO dfs.FSNamesystem: BLOCK* NameSystem.delete: blk_-5794778981380469440 is added to invalidSet of 10.251.73.220:50010
081110 103332 19 INFO dfs.FSDataset: Deleting block blk_-5794778981380469440 file /mnt/hadoop/dfs/data/current/subdir9/blk_-5794778981380469440
081110 103348 19 INFO dfs.FSDataset: Deleting block blk_-5794778981380469440 file /mnt/hadoop/dfs/data/current/subdir45/blk_-5794778981380469440
081110 103505 19 INFO dfs.FSDataset: Deleting block blk_-5794778981380469440 file /mnt/hadoop/dfs/data/current/subdir46/blk_-5794778981380469440
081110 122152 10795 INFO dfs.DataNode$DataXceiver: Receiving block blk_-7154461929921075620 src: /10.251.107.196:49083 dest: /10.251.107.196:50010
081110 122152 10997 INFO dfs.DataNode$DataXceiver: Receiving block blk_-7154461929921075620 src: /10.250.19.16:59967 dest: /10.250.19.16:50010
081110 122152 11197 INFO dfs.DataNode$DataXceiver: Receiving block blk_-7154461929921075620 src: /10.250.19.16:34494 dest: /10.250.19.16:50010
081110 122152 29 INFO dfs.FSNamesystem: BLOCK* NameSystem.allocateBlock: /user/root/randtxt2/_temporary/_task_200811101024_0002_m_001553_0/part-01553. blk_-7154461929921075620
081110 122225 10796 INFO dfs.DataNode$PacketResponder: PacketResponder 0 for block blk_-7154461929921075620 terminating
081110 122225 10796 INFO dfs.DataNode$PacketResponder: Received block blk_-7154461929921075620 of size 67108864 from /10.251.107.196
081110 122225 10998 INFO dfs.DataNode$PacketResponder: PacketResponder 1 for block blk_-7154461929921075620 terminating
081110 122225 10998 INFO dfs.DataNode$PacketResponder: Received block blk_-7154461929921075620 of size 67108864 from /10.250.19.16
081110 122225 11198 INFO dfs.DataNode$PacketResponder: PacketResponder 2 for block blk_-7154461929921075620 terminating
081110 122225 11198 INFO dfs.DataNode$PacketResponder: Received block blk_-7154461929921075620 of size 67108864 from /10.250.19.16
081110 122225 28 INFO dfs.FSNamesystem: BLOCK* NameSystem.addStoredBlock: blockMap updated: 10.251.107.196:50010 is added to blk_-7154461929921075620 size 67108864
081110 122225 29 INFO dfs.FSNamesystem: BLOCK* NameSystem.addStoredBlock: blockMap updated: 10.250.19.16:50010 is added to blk_-7154461929921075620 size 67108864
081110 122225 34 INFO dfs.FSNamesystem: BLOCK* NameSystem.addStoredBlock: blockMap updated: 10.251.109.236:50010 is added to blk_-7154461929921075620 size 67108864
081110 192212 13872 INFO dfs.DataNode$DataXceiver: 10.251.109.236:50010 Served block blk_-7154461929921075620 to /10.251.109.236
081110 192647 14416 INFO dfs.DataNode$DataXceiver: 10.250.19.16:50010 Served block blk_-7154461929921075620 to /10.251.203.246
081110 192805 14432 WARN dfs.DataNode$DataXceiver: 10.250.19.16:50010:Got exception while serving blk_-7154461929921075620 to /10.250.19.16:
081111 021918 17511 INFO dfs.DataNode$DataXceiver: 10.251.109.236:50010 Served block blk_-7154461929921075620 to /10.251.109.236
081111 022148 17690 INFO dfs.DataNode$DataXceiver: 10.251.107.196:50010 Served block blk_-7154461929921075620 to /10.251.203.246
081111 022717 17724 WARN dfs.DataNode$DataXceiver: 10.251.107.196:50010:Got exception while serving blk_-7154461929921075620 to /10.250.10.176:
081111 023032 27 INFO dfs.FSNamesystem: BLOCK* NameSystem.delete: blk_-7154461929921075620 is added to invalidSet of 10.250.19.16:50010
081111 023032 27 INFO dfs.FSNamesystem: BLOCK* NameSystem.delete: blk_-7154461929921075620 is added to invalidSet of 10.251.107.196:50010
081111 023032 27 INFO dfs.FSNamesystem: BLOCK* NameSystem.delete: blk_-7154461929921075620 is added to invalidSet of 10.251.109.236:50010
081111 023204 19 INFO dfs.FSDataset: Deleting block blk_-7154461929921075620 file /mnt/hadoop/dfs/data/current/subdir31/blk_-7154461929921075620
081111 023236 19 INFO dfs.FSDataset: Deleting block blk_-7154461929921075620 file /mnt/hadoop/dfs/data/current/subdir45/blk_-7154461929921075620
081111 023245 19 INFO dfs.FSDataset: Deleting block blk_-7154461929921075620 file /mnt/hadoop/dfs/data/current/subdir13/blk_-7154461929921075620
081111 093808 25779 INFO dfs.DataNode$DataXceiver: Receiving block blk_-1421099010127019560 src: /10.251.126.5:53543 dest: /10.251.126.5:50010
081111 093808 25996 INFO dfs.DataNode$DataXceiver: Receiving block blk_-1421099010127019560 src: /10.251.126.5:38058 dest: /10.251.126.5:50010
081111 093808 26 INFO dfs.FSNamesystem: BLOCK* NameSystem.allocateBlock: /user/root/rand8/_temporary/_task_200811101024_0015_m_001414_0/part-01414. blk_-1421099010127019560
081111 093809 25619 INFO dfs.DataNode$DataXceiver: Receiving block blk_-1421099010127019560 src: /10.251.71.193:34887 dest: /10.251.71.193:50010
081111 093836 25620 INFO dfs.DataNode$PacketResponder: PacketResponder 0 for block blk_-1421099010127019560 terminating
081111 093836 25620 INFO dfs.DataNode$PacketResponder: Received block blk_-1421099010127019560 of size 67108864 from /10.251.71.193
081111 093836 25780 INFO dfs.DataNode$PacketResponder: PacketResponder 2 for block blk_-1421099010127019560 terminating
081111 093836 25780 INFO dfs.DataNode$PacketResponder: Received block blk_-1421099010127019560 of size 67108864 from /10.251.126.5
081111 093836 25997 INFO dfs.DataNode$PacketResponder: PacketResponder 1 for block blk_-1421099010127019560 terminating
081111 093836 25997 INFO dfs.DataNode$PacketResponder: Received block blk_-1421099010127019560 of size 67108864 from /10.251.126.5
081111 093836 28 INFO dfs.FSNamesystem: BLOCK* NameSystem.addStoredBlock: blockMap updated: 10.251.71.193:50010 is added to blk_-1421099010127019560 size 67108864
081111 093836 31 INFO dfs.FSNamesystem: BLOCK* NameSystem.addStoredBlock: blockMap updated: 10.251.126.5:50010 is added to blk_-1421099010127019560 size 67108864
081111 093836 35 INFO dfs.FSNamesystem: BLOCK* NameSystem.addStoredBlock: blockMap updated: 10.251.125.174:50010 is added to blk_-1421099010127019560 size 67108864
081111 093532 25193 INFO dfs.DataNode$DataXceiver: Receiving block blk_-7641803269486132345 src: /10.251.123.20:46253 dest: /10.251.123.20:50010
081111 093532 25656 INFO dfs.DataNode$DataXceiver: Receiving block blk_-7641803269486132345 src: /10.251.110.8:41967 dest: /10.251.110.8:50010
081111 093532 25781 INFO dfs.DataNode$DataXceiver: Receiving block blk_-7641803269486132345 src: /10.251.110.8:49909 dest: /10.251.110.8:50010
081111 093532 30 INFO dfs.FSNamesystem: BLOCK* NameSystem.allocateBlock: /user/root/rand8/_temporary/_task_200811101024_0015_m_001501_0/part-01501. blk_-7641803269486132345
081111 093614 25194 INFO dfs.DataNode$PacketResponder: PacketResponder 0 for block blk_-7641803269486132345 terminating
081111 093614 25194 INFO dfs.DataNode$PacketResponder: Received block blk_-7641803269486132345 of size 67108864 from /10.251.123.20
081111 093614 25657 INFO dfs.DataNode$PacketResponder: PacketResponder 2 for block blk_-7641803269486132345 terminating
081111 093614 25657 INFO dfs.DataNode$PacketResponder: Received block blk_-7641803269486132345 of size 67108864 from /10.251.110.8
081111 093614 25782 INFO dfs.DataNode$PacketResponder: PacketResponder 1 for block blk_-7641803269486132345 terminating
081111 093614 25782 INFO dfs.DataNode$PacketResponder: Received block blk_-7641803269486132345 of size 67108864 from /10.251.110.8
081111 093614 28 INFO dfs.FSNamesystem: BLOCK* NameSystem.addStoredBlock: blockMap updated: 10.251.123.20:50010 is added to blk_-7641803269486132345 size 67108864
081111 093614 30 INFO dfs.FSNamesystem: BLOCK* NameSystem.addStoredBlock: blockMap updated: 10.251.202.181:50010 is added to blk_-7641803269486132345 size 67108864
081111 093614 31 INFO dfs.FSNamesystem: BLOCK* NameSystem.addStoredBlock: blockMap updated: 10.251.110.8:50010 is added to blk_-7641803269486132345 size 67108864
081109 235557 26 INFO dfs.FSNamesystem: BLOCK* NameSystem.allocateBlock: /user/root/sortrand/_temporary/_task_200811092030_0002_r_000047_0/part-00047. blk_990705859974680466
081109 235557 4271 INFO dfs.DataNode$DataXceiver: Receiving block blk_990705859974680466 src: /10.251.38.214:34164 dest: /10.251.38.214:50010
081109 235557 4430 INFO dfs.DataNode$DataXceiver: Receiving block blk_990705859974680466 src: /10.251.38.214:49311 dest: /10.251.38.214:50010
081109 235557 4456 INFO dfs.DataNode$DataXceiver: Receiving block blk_990705859974680466 src: /10.251.203.129:41888 dest: /10.251.203.129:50010
081109 235647 27 INFO dfs.FSNamesystem: BLOCK* NameSystem.addStoredBlock: blockMap updated: 10.251.203.129:50010 is added to blk_990705859974680466 size 67108864
081109 235647 28 INFO dfs.FSNamesystem: BLOCK* NameSystem.addStoredBlock: blockMap updated: 10.251.38.214:50010 is added to blk_990705859974680466 size 67108864
081109 235647 32 INFO dfs.FSNamesystem: BLOCK* NameSystem.addStoredBlock: blockMap updated: 10.251.215.16:50010 is added to blk_990705859974680466 size 67108864
081109 235647 4272 INFO dfs.DataNode$PacketResponder: PacketResponder 1 for block blk_990705859974680466 terminating
081109 235647 4272 INFO dfs.DataNode$PacketResponder: Received block blk_990705859974680466 of size 67108864 from /10.251.38.214
081109 235647 4431 INFO dfs.DataNode$PacketResponder: PacketResponder 2 for block blk_990705859974680466 terminating
081109 235647 4431 INFO dfs.DataNode$PacketResponder: Received block blk_990705859974680466 of size 67108864 from /10.251.38.214
081109 235647 4457 INFO dfs.DataNode$PacketResponder: PacketResponder 0 for block blk_990705859974680466 terminating
081109 235647 4457 INFO dfs.DataNode$PacketResponder: Received block blk_990705859974680466 of size 67108864 from /10.251.203.129
081110 103129 30 INFO dfs.FSNamesystem: BLOCK* NameSystem.delete: blk_990705859974680466 is added to invalidSet of 10.251.203.129:50010
081110 103129 30 INFO dfs.FSNamesystem: BLOCK* NameSystem.delete: blk_990705859974680466 is added to invalidSet of 10.251.215.16:50010
081110 103129 30 INFO dfs.FSNamesystem: BLOCK* NameSystem.delete: blk_990705859974680466 is added to invalidSet of 10.251.38.214:50010
081110 103438 19 INFO dfs.FSDataset: Deleting block blk_990705859974680466 file /mnt/hadoop/dfs/data/current/subdir12/blk_990705859974680466
081110 103442 19 INFO dfs.FSDataset: Deleting block blk_990705859974680466 file /mnt/hadoop/dfs/data/current/subdir30/blk_990705859974680466
081110 103617 19 INFO dfs.FSDataset: Deleting block blk_990705859974680466 file /mnt/hadoop/dfs/data/current/subdir49/blk_990705859974680466
081109 211425 1648 INFO dfs.DataNode$DataXceiver: Receiving block blk_6282089834495728094 src: /10.251.70.211:45883 dest: /10.251.70.211:50010
081109 211425 28 INFO dfs.FSNamesystem: BLOCK* NameSystem.allocateBlock: /user/root/rand/_temporary/_task_200811092030_0001_m_001567_0/part-01567. blk_6282089834495728094
081109 211428 1685 INFO dfs.DataNode$DataXceiver: Receiving block blk_6282089834495728094 src: /10.251.70.211:53827 dest: /10.251.70.211:50010
081109 211429 1629 INFO dfs.DataNode$DataXceiver: Receiving block blk_6282089834495728094 src: /10.251.71.193:39645 dest: /10.251.71.193:50010
081109 211448 1630 INFO dfs.DataNode$PacketResponder: PacketResponder 0 for block blk_6282089834495728094 terminating
081109 211448 1630 INFO dfs.DataNode$PacketResponder: Received block blk_6282089834495728094 of size 67108864 from /10.251.71.193
081109 211448 1650 INFO dfs.DataNode$PacketResponder: PacketResponder 2 for block blk_6282089834495728094 terminating
081109 211448 1650 INFO dfs.DataNode$PacketResponder: Received block blk_6282089834495728094 of size 67108864 from /10.251.70.211
081109 211448 1687 INFO dfs.DataNode$PacketResponder: PacketResponder 1 for block blk_6282089834495728094 terminating
081109 211448 1687 INFO dfs.DataNode$PacketResponder: Received block blk_6282089834495728094 of size 67108864 from /10.251.70.211
081109 211448 27 INFO dfs.FSNamesystem: BLOCK* NameSystem.addStoredBlock: blockMap updated: 10.251.71.193:50010 is added to blk_6282089834495728094 size 67108864
081109 211448 29 INFO dfs.FSNamesystem: BLOCK* NameSystem.addStoredBlock: blockMap updated: 10.251.39.209:50010 is added to blk_6282089834495728094 size 67108864
081109 211448 32 INFO dfs.FSNamesystem: BLOCK* NameSystem.addStoredBlock: blockMap updated: 10.251.70.211:50010 is added to blk_6282089834495728094 size 67108864
081109 223614 3630 WARN dfs.DataNode$DataXceiver: 10.251.71.193:50010:Got exception while serving blk_6282089834495728094 to /10.251.193.175:
081109 223626 3631 INFO dfs.DataNode$DataXceiver: 10.251.71.193:50010 Served block blk_6282089834495728094 to /10.251.193.175
081109 223721 3624 WARN dfs.DataNode$DataXceiver: 10.251.70.211:50010:Got exception while serving blk_6282089834495728094 to /10.251.70.211:
081110 074801 13 INFO dfs.DataBlockScanner: Verification succeeded for blk_6282089834495728094
081110 103114 30 INFO dfs.FSNamesystem: BLOCK* NameSystem.delete: blk_6282089834495728094 is added to invalidSet of 10.251.39.209:50010
081110 103114 30 INFO dfs.FSNamesystem: BLOCK* NameSystem.delete: blk_6282089834495728094 is added to invalidSet of 10.251.70.211:50010
081110 103114 30 INFO dfs.FSNamesystem: BLOCK* NameSystem.delete: blk_6282089834495728094 is added to invalidSet of 10.251.71.193:50010
081110 103627 19 INFO dfs.FSDataset: Deleting block blk_6282089834495728094 file /mnt/hadoop/dfs/data/current/subdir62/blk_6282089834495728094
081110 103647 19 INFO dfs.FSDataset: Deleting block blk_6282089834495728094 file /mnt/hadoop/dfs/data/current/subdir21/blk_6282089834495728094
081110 103715 18 INFO dfs.FSDataset: Deleting block blk_6282089834495728094 file /mnt/hadoop/dfs/data/current/subdir31/blk_6282089834495728094
081111 042800 19726 INFO dfs.DataNode$DataXceiver: Receiving block blk_5965906069953099308 src: /10.251.26.8:44040 dest: /10.251.26.8:50010
081111 042800 19798 INFO dfs.DataNode$DataXceiver: Receiving block blk_5965906069953099308 src: /10.250.15.240:53691 dest: /10.250.15.240:50010
081111 042800 19981 INFO dfs.DataNode$DataXceiver: Receiving block blk_5965906069953099308 src: /10.250.15.240:35389 dest: /10.250.15.240:50010
081111 042800 29 INFO dfs.FSNamesystem: BLOCK* NameSystem.allocateBlock: /user/root/randtxt4/_temporary/_task_200811101024_0010_m_001660_0/part-01660. blk_5965906069953099308
081111 042822 19727 INFO dfs.DataNode$PacketResponder: PacketResponder 0 for block blk_5965906069953099308 terminating
081111 042822 19727 INFO dfs.DataNode$PacketResponder: Received block blk_5965906069953099308 of size 67108864 from /10.251.26.8
081111 042822 19799 INFO dfs.DataNode$PacketResponder: PacketResponder 2 for block blk_5965906069953099308 terminating
081111 042822 19799 INFO dfs.DataNode$PacketResponder: Received block blk_5965906069953099308 of size 67108864 from /10.250.15.240
081111 042822 19982 INFO dfs.DataNode$PacketResponder: PacketResponder 1 for block blk_5965906069953099308 terminating
081111 042822 19982 INFO dfs.DataNode$PacketResponder: Received block blk_5965906069953099308 of size 67108864 from /10.250.15.240
081111 042822 26 INFO dfs.FSNamesystem: BLOCK* NameSystem.addStoredBlock: blockMap updated: 10.250.10.100:50010 is added to blk_5965906069953099308 size 67108864
081111 042822 31 INFO dfs.FSNamesystem: BLOCK* NameSystem.addStoredBlock: blockMap updated: 10.251.26.8:50010 is added to blk_5965906069953099308 size 67108864
081111 042822 34 INFO dfs.FSNamesystem: BLOCK* NameSystem.addStoredBlock: blockMap updated: 10.250.15.240:50010 is added to blk_5965906069953099308 size 67108864
081111 085227 24800 INFO dfs.DataNode$DataXceiver: Receiving block blk_-6978525302263056930 src: /10.251.30.179:57051 dest: /10.251.30.179:50010
081111 085227 24839 INFO dfs.DataNode$DataXceiver: Receiving block blk_-6978525302263056930 src: /10.251.30.179:48019 dest: /10.251.30.179:50010
081111 085227 24843 INFO dfs.DataNode$DataXceiver: Receiving block blk_-6978525302263056930 src: /10.251.109.209:36517 dest: /10.251.109.209:50010
081111 085227 30 INFO dfs.FSNamesystem: BLOCK* NameSystem.allocateBlock: /user/root/rand7/_temporary/_task_200811101024_0014_m_001864_0/part-01864. blk_-6978525302263056930
081111 085301 24801 INFO dfs.DataNode$PacketResponder: PacketResponder 2 for block blk_-6978525302263056930 terminating
081111 085301 24801 INFO dfs.DataNode$PacketResponder: Received block blk_-6978525302263056930 of size 67108864 from /10.251.30.179
081111 085301 24840 INFO dfs.DataNode$PacketResponder: PacketResponder 1 for block blk_-6978525302263056930 terminating
081111 085301 24840 INFO dfs.DataNode$PacketResponder: Received block blk_-6978525302263056930 of size 67108864 from /10.251.30.179
081111 085301 24844 INFO dfs.DataNode$PacketResponder: PacketResponder 0 for block blk_-6978525302263056930 terminating
081111 085301 24844 INFO dfs.DataNode$PacketResponder: Received block blk_-6978525302263056930 of size 67108864 from /10.251.109.209
081111 085301 32 INFO dfs.FSNamesystem: BLOCK* NameSystem.addStoredBlock: blockMap updated: 10.250.7.32:50010 is added to blk_-6978525302263056930 size 67108864
081111 085301 33 INFO dfs.FSNamesystem: BLOCK* NameSystem.addStoredBlock: blockMap updated: 10.251.109.209:50010 is added to blk_-6978525302263056930 size 67108864
081111 085301 35 INFO dfs.FSNamesystem: BLOCK* NameSystem.addStoredBlock: blockMap updated: 10.251.30.179:50010 is added to blk_-6978525302263056930 size 67108864
081111 034415 18755 INFO dfs.DataNode$DataXceiver: Receiving block blk_6392282822684164426 src: /10.250.15.67:35895 dest: /10.250.15.67:50010
081111 034415 35 INFO dfs.FSNamesystem: BLOCK* NameSystem.allocateBlock: /user/root/randtxt4/_temporary/_task_200811101024_0010_m_000054_0/part-00054. blk_6392282822684164426
081111 034417 18958 INFO dfs.DataNode$DataXceiver: Receiving block blk_6392282822684164426 src: /10.251.126.83:40117 dest: /10.251.126.83:50010
081111 034417 19296 INFO dfs.DataNode$DataXceiver: Receiving block blk_6392282822684164426 src: /10.250.15.67:51503 dest: /10.250.15.67:50010
081111 034448 18756 INFO dfs.DataNode$PacketResponder: PacketResponder 2 for block blk_6392282822684164426 terminating
081111 034448 18756 INFO dfs.DataNode$PacketResponder: Received block blk_6392282822684164426 of size 67108864 from /10.250.15.67
081111 034448 18959 INFO dfs.DataNode$PacketResponder: PacketResponder 0 for block blk_6392282822684164426 terminating
081111 034448 18959 INFO dfs.DataNode$PacketResponder: Received block blk_6392282822684164426 of size 67108864 from /10.251.126.83
081111 034448 19297 INFO dfs.DataNode$PacketResponder: PacketResponder 1 for block blk_6392282822684164426 terminating
081111 034448 19297 INFO dfs.DataNode$PacketResponder: Received block blk_6392282822684164426 of size 67108864 from /10.250.15.67
081111 034448 29 INFO dfs.FSNamesystem: BLOCK* NameSystem.addStoredBlock: blockMap updated: 10.251.90.239:50010 is added to blk_6392282822684164426 size 67108864
081111 034448 31 INFO dfs.FSNamesystem: BLOCK* NameSystem.addStoredBlock: blockMap updated: 10.251.126.83:50010 is added to blk_6392282822684164426 size 67108864
081111 034448 35 INFO dfs.FSNamesystem: BLOCK* NameSystem.addStoredBlock: blockMap updated: 10.250.15.67:50010 is added to blk_6392282822684164426 size 67108864
081111 024315 17472 INFO dfs.DataNode$DataXceiver: Receiving block blk_4593029686712191173 src: /10.251.67.113:41189 dest: /10.251.67.113:50010
081111 024315 17686 INFO dfs.DataNode$DataXceiver: Receiving block blk_4593029686712191173 src: /10.251.67.113:47709 dest: /10.251.67.113:50010
081111 024315 28 INFO dfs.FSNamesystem: BLOCK* NameSystem.allocateBlock: /user/root/rand4/_temporary/_task_200811101024_0009_m_000154_0/part-00154. blk_4593029686712191173
081111 024316 17629 INFO dfs.DataNode$DataXceiver: Receiving block blk_4593029686712191173 src: /10.251.203.129:50123 dest: /10.251.203.129:50010
081111 024351 17475 INFO dfs.DataNode$PacketResponder: PacketResponder 1 for block blk_4593029686712191173 terminating
081111 024351 17475 INFO dfs.DataNode$PacketResponder: Received block blk_4593029686712191173 of size 67108864 from /10.251.67.113
081111 024351 17630 INFO dfs.DataNode$PacketResponder: PacketResponder 0 for block blk_4593029686712191173 terminating
081111 024351 17630 INFO dfs.DataNode$PacketResponder: Received block blk_4593029686712191173 of size 67108864 from /10.251.203.129
081111 024351 17687 INFO dfs.DataNode$PacketResponder: PacketResponder 2 for block blk_4593029686712191173 terminating
081111 024351 17687 INFO dfs.DataNode$PacketResponder: Received block blk_4593029686712191173 of size 67108864 from /10.251.67.113
081111 024351 26 INFO dfs.FSNamesystem: BLOCK* NameSystem.addStoredBlock: blockMap updated: 10.251.203.129:50010 is added to blk_4593029686712191173 size 67108864
081111 024351 30 INFO dfs.FSNamesystem: BLOCK* NameSystem.addStoredBlock: blockMap updated: 10.251.111.37:50010 is added to blk_4593029686712191173 size 67108864
081111 024351 34 INFO dfs.FSNamesystem: BLOCK* NameSystem.addStoredBlock: blockMap updated: 10.251.67.113:50010 is added to blk_4593029686712191173 size 67108864
081111 044304 35 INFO dfs.FSNamesystem: BLOCK* NameSystem.delete: blk_4593029686712191173 is added to invalidSet of 10.251.111.37:50010
081111 044304 35 INFO dfs.FSNamesystem: BLOCK* NameSystem.delete: blk_4593029686712191173 is added to invalidSet of 10.251.203.129:50010
081111 044304 35 INFO dfs.FSNamesystem: BLOCK* NameSystem.delete: blk_4593029686712191173 is added to invalidSet of 10.251.67.113:50010
081111 044449 19 INFO dfs.FSDataset: Deleting block blk_4593029686712191173 file /mnt/hadoop/dfs/data/current/subdir43/blk_4593029686712191173
081111 044456 19 INFO dfs.FSDataset: Deleting block blk_4593029686712191173 file /mnt/hadoop/dfs/data/current/subdir60/blk_4593029686712191173
081111 044752 19 INFO dfs.FSDataset: Deleting block blk_4593029686712191173 file /mnt/hadoop/dfs/data/current/subdir45/blk_4593029686712191173
081111 102445 26617 INFO dfs.DataNode$DataXceiver: Receiving block blk_-8545468966709771515 src: /10.251.27.63:34449 dest: /10.251.27.63:50010
081111 102445 26708 INFO dfs.DataNode$DataXceiver: Receiving block blk_-8545468966709771515 src: /10.251.70.37:59608 dest: /10.251.70.37:50010
081111 102445 27069 INFO dfs.DataNode$DataXceiver: Receiving block blk_-8545468966709771515 src: /10.251.70.37:35666 dest: /10.251.70.37:50010
081111 102445 35 INFO dfs.FSNamesystem: BLOCK* NameSystem.allocateBlock: /user/root/randtxt9/_temporary/_task_200811101024_0016_m_000741_0/part-00741. blk_-8545468966709771515
081111 102522 26618 INFO dfs.DataNode$PacketResponder: PacketResponder 0 for block blk_-8545468966709771515 terminating
081111 102522 26618 INFO dfs.DataNode$PacketResponder: Received block blk_-8545468966709771515 of size 67108864 from /10.251.27.63
081111 102522 26710 INFO dfs.DataNode$PacketResponder: PacketResponder 2 for block blk_-8545468966709771515 terminating
081111 102522 26710 INFO dfs.DataNode$PacketResponder: Received block blk_-8545468966709771515 of size 67108864 from /10.251.70.37
081111 102522 26 INFO dfs.FSNamesystem: BLOCK* NameSystem.addStoredBlock: blockMap updated: 10.250.7.244:50010 is added to blk_-8545468966709771515 size 67108864
081111 102522 27070 INFO dfs.DataNode$PacketResponder: PacketResponder 1 for block blk_-8545468966709771515 terminating
081111 102522 27070 INFO dfs.DataNode$PacketResponder: Received block blk_-8545468966709771515 of size 67108864 from /10.251.70.37
081111 102522 32 INFO dfs.FSNamesystem: BLOCK* NameSystem.addStoredBlock: blockMap updated: 10.251.27.63:50010 is added to blk_-8545468966709771515 size 67108864
081111 102522 33 INFO dfs.FSNamesystem: BLOCK* NameSystem.addStoredBlock: blockMap updated: 10.251.70.37:50010 is added to blk_-8545468966709771515 size 67108864
081111 110434 26 INFO dfs.FSNamesystem: BLOCK* NameSystem.delete: blk_-8545468966709771515 is added to invalidSet of 10.250.7.244:50010
081111 110434 26 INFO dfs.FSNamesystem: BLOCK* NameSystem.delete: blk_-8545468966709771515 is added to invalidSet of 10.251.27.63:50010
081111 110434 26 INFO dfs.FSNamesystem: BLOCK* NameSystem.delete: blk_-8545468966709771515 is added to invalidSet of 10.251.70.37:50010
081111 110522 19 INFO dfs.FSDataset: Deleting block blk_-8545468966709771515 file /mnt/hadoop/dfs/data/current/subdir7/blk_-8545468966709771515
081111 110527 18 INFO dfs.FSDataset: Deleting block blk_-8545468966709771515 file /mnt/hadoop/dfs/data/current/subdir12/blk_-8545468966709771515
081111 110538 19 INFO dfs.FSDataset: Deleting block blk_-8545468966709771515 file /mnt/hadoop/dfs/data/current/subdir11/blk_-8545468966709771515
081111 053858 21016 INFO dfs.DataNode$DataXceiver: Receiving block blk_-5260721627932147906 src: /10.251.75.163:47513 dest: /10.251.75.163:50010
081111 053858 21142 INFO dfs.DataNode$DataXceiver: Receiving block blk_-5260721627932147906 src: /10.251.107.98:51970 dest: /10.251.107.98:50010
081111 053858 21447 INFO dfs.DataNode$DataXceiver: Receiving block blk_-5260721627932147906 src: /10.251.75.163:34241 dest: /10.251.75.163:50010
081111 053858 35 INFO dfs.FSNamesystem: BLOCK* NameSystem.allocateBlock: /user/root/rand5/_temporary/_task_200811101024_0011_m_001621_1/part-01621. blk_-5260721627932147906
081111 053941 21017 INFO dfs.DataNode$PacketResponder: PacketResponder 1 for block blk_-5260721627932147906 terminating
081111 053941 21017 INFO dfs.DataNode$PacketResponder: Received block blk_-5260721627932147906 of size 67108864 from /10.251.75.163
081111 053941 21143 INFO dfs.DataNode$PacketResponder: PacketResponder 0 for block blk_-5260721627932147906 terminating
081111 053941 21143 INFO dfs.DataNode$PacketResponder: Received block blk_-5260721627932147906 of size 67108864 from /10.251.107.98
081111 053941 21448 INFO dfs.DataNode$PacketResponder: PacketResponder 2 for block blk_-5260721627932147906 terminating
081111 053941 21448 INFO dfs.DataNode$PacketResponder: Received block blk_-5260721627932147906 of size 67108864 from /10.251.75.163
081111 053941 27 INFO dfs.FSNamesystem: BLOCK* NameSystem.addStoredBlock: blockMap updated: 10.251.75.163:50010 is added to blk_-5260721627932147906 size 67108864
081111 053941 31 INFO dfs.FSNamesystem: BLOCK* NameSystem.addStoredBlock: blockMap updated: 10.251.74.192:50010 is added to blk_-5260721627932147906 size 67108864
081111 053941 33 INFO dfs.FSNamesystem: BLOCK* NameSystem.addStoredBlock: blockMap updated: 10.251.107.98:50010 is added to blk_-5260721627932147906 size 67108864
081111 054728 35 INFO dfs.FSNamesystem: BLOCK* NameSystem.delete: blk_-5260721627932147906 is added to invalidSet of 10.251.107.98:50010
081111 054728 35 INFO dfs.FSNamesystem: BLOCK* NameSystem.delete: blk_-5260721627932147906 is added to invalidSet of 10.251.74.192:50010
081111 054728 35 INFO dfs.FSNamesystem: BLOCK* NameSystem.delete: blk_-5260721627932147906 is added to invalidSet of 10.251.75.163:50010
081111 054731 19 INFO dfs.FSDataset: Deleting block blk_-5260721627932147906 file /mnt/hadoop/dfs/data/current/subdir49/blk_-5260721627932147906
081111 054800 19 INFO dfs.FSDataset: Deleting block blk_-5260721627932147906 file /mnt/hadoop/dfs/data/current/subdir47/blk_-5260721627932147906
081111 054806 18 INFO dfs.FSDataset: Deleting block blk_-5260721627932147906 file /mnt/hadoop/dfs/data/current/subdir50/blk_-5260721627932147906
081111 070308 22694 INFO dfs.DataNode$DataXceiver: Receiving block blk_3220898581613161538 src: /10.251.29.239:47768 dest: /10.251.29.239:50010
081111 070308 34 INFO dfs.FSNamesystem: BLOCK* NameSystem.allocateBlock: /user/root/rand6/_temporary/_task_200811101024_0013_m_000058_0/part-00058. blk_3220898581613161538
081111 070309 22451 INFO dfs.DataNode$DataXceiver: Receiving block blk_3220898581613161538 src: /10.250.7.230:37562 dest: /10.250.7.230:50010
081111 070309 22832 INFO dfs.DataNode$DataXceiver: Receiving block blk_3220898581613161538 src: /10.251.29.239:47503 dest: /10.251.29.239:50010
081111 070343 22452 INFO dfs.DataNode$PacketResponder: PacketResponder 0 for block blk_3220898581613161538 terminating
081111 070343 22452 INFO dfs.DataNode$PacketResponder: Received block blk_3220898581613161538 of size 67108864 from /10.250.7.230
081111 070343 22695 INFO dfs.DataNode$PacketResponder: PacketResponder 2 for block blk_3220898581613161538 terminating
081111 070343 22695 INFO dfs.DataNode$PacketResponder: Received block blk_3220898581613161538 of size 67108864 from /10.251.29.239
081111 070343 22833 INFO dfs.DataNode$PacketResponder: PacketResponder 1 for block blk_3220898581613161538 terminating
081111 070343 22833 INFO dfs.DataNode$PacketResponder: Received block blk_3220898581613161538 of size 67108864 from /10.251.29.239
081111 070343 27 INFO dfs.FSNamesystem: BLOCK* NameSystem.addStoredBlock: blockMap updated: 10.251.29.239:50010 is added to blk_3220898581613161538 size 67108864
081111 070343 29 INFO dfs.FSNamesystem: BLOCK* NameSystem.addStoredBlock: blockMap updated: 10.250.7.230:50010 is added to blk_3220898581613161538 size 67108864
081111 070343 34 INFO dfs.FSNamesystem: BLOCK* NameSystem.addStoredBlock: blockMap updated: 10.251.203.166:50010 is added to blk_3220898581613161538 size 67108864
081111 085906 27 INFO dfs.FSNamesystem: BLOCK* NameSystem.delete: blk_3220898581613161538 is added to invalidSet of 10.250.7.230:50010
081111 085906 27 INFO dfs.FSNamesystem: BLOCK* NameSystem.delete: blk_3220898581613161538 is added to invalidSet of 10.251.203.166:50010
081111 085906 27 INFO dfs.FSNamesystem: BLOCK* NameSystem.delete: blk_3220898581613161538 is added to invalidSet of 10.251.29.239:50010
081111 090140 19 INFO dfs.FSDataset: Deleting block blk_3220898581613161538 file /mnt/hadoop/dfs/data/current/subdir44/blk_3220898581613161538
081111 090141 19 INFO dfs.FSDataset: Deleting block blk_3220898581613161538 file /mnt/hadoop/dfs/data/current/subdir26/blk_3220898581613161538
081111 090232 19 INFO dfs.FSDataset: Deleting block blk_3220898581613161538 file /mnt/hadoop/dfs/data/current/subdir28/blk_3220898581613161538
081110 222212 15542 INFO dfs.DataNode$DataXceiver: Receiving block blk_1830311136840215491 src: /10.251.71.240:41868 dest: /10.251.71.240:50010
081110 222212 15868 INFO dfs.DataNode$DataXceiver: Receiving block blk_1830311136840215491 src: /10.251.122.65:46369 dest: /10.251.122.65:50010
081110 222212 16160 INFO dfs.DataNode$DataXceiver: Receiving block blk_1830311136840215491 src: /10.251.122.65:51076 dest: /10.251.122.65:50010
081110 222212 28 INFO dfs.FSNamesystem: BLOCK* NameSystem.allocateBlock: /user/root/randtxt3/_temporary/_task_200811101024_0007_m_000375_0/part-00375. blk_1830311136840215491
081110 222233 15543 INFO dfs.DataNode$PacketResponder: PacketResponder 0 for block blk_1830311136840215491 terminating
081110 222233 15543 INFO dfs.DataNode$PacketResponder: Received block blk_1830311136840215491 of size 67108864 from /10.251.71.240
081110 222233 15869 INFO dfs.DataNode$PacketResponder: PacketResponder 2 for block blk_1830311136840215491 terminating
081110 222233 15869 INFO dfs.DataNode$PacketResponder: Received block blk_1830311136840215491 of size 67108864 from /10.251.122.65
081110 222233 16161 INFO dfs.DataNode$PacketResponder: PacketResponder 1 for block blk_1830311136840215491 terminating
081110 222233 16161 INFO dfs.DataNode$PacketResponder: Received block blk_1830311136840215491 of size 67108864 from /10.251.122.65
081110 222233 28 INFO dfs.FSNamesystem: BLOCK* NameSystem.addStoredBlock: blockMap updated: 10.251.91.32:50010 is added to blk_1830311136840215491 size 67108864
081110 222233 29 INFO dfs.FSNamesystem: BLOCK* NameSystem.addStoredBlock: blockMap updated: 10.251.122.65:50010 is added to blk_1830311136840215491 size 67108864
081110 222233 33 INFO dfs.FSNamesystem: BLOCK* NameSystem.addStoredBlock: blockMap updated: 10.251.71.240:50010 is added to blk_1830311136840215491 size 67108864
081111 044332 29 INFO dfs.FSNamesystem: BLOCK* NameSystem.delete: blk_1830311136840215491 is added to invalidSet of 10.251.122.65:50010
081111 044332 29 INFO dfs.FSNamesystem: BLOCK* NameSystem.delete: blk_1830311136840215491 is added to invalidSet of 10.251.71.240:50010
081111 044332 29 INFO dfs.FSNamesystem: BLOCK* NameSystem.delete: blk_1830311136840215491 is added to invalidSet of 10.251.91.32:50010
081111 044726 19 INFO dfs.FSDataset: Deleting block blk_1830311136840215491 file /mnt/hadoop/dfs/data/current/subdir0/blk_1830311136840215491
081111 044812 19 INFO dfs.FSDataset: Deleting block blk_1830311136840215491 file /mnt/hadoop/dfs/data/current/subdir35/blk_1830311136840215491
081111 044936 19 INFO dfs.FSDataset: Deleting block blk_1830311136840215491 file /mnt/hadoop/dfs/data/current/subdir33/blk_1830311136840215491
081110 122931 11160 INFO dfs.DataNode$DataXceiver: Receiving block blk_-8796922771196404776 src: /10.250.6.214:41786 dest: /10.250.6.214:50010
081110 122931 11170 INFO dfs.DataNode$DataXceiver: Receiving block blk_-8796922771196404776 src: /10.250.6.214:36442 dest: /10.250.6.214:50010
081110 122931 31 INFO dfs.FSNamesystem: BLOCK* NameSystem.allocateBlock: /user/root/randtxt2/_temporary/_task_200811101024_0002_m_001704_0/part-01704. blk_-8796922771196404776
081110 122932 11222 INFO dfs.DataNode$DataXceiver: Receiving block blk_-8796922771196404776 src: /10.251.43.210:38627 dest: /10.251.43.210:50010
081110 123030 11161 INFO dfs.DataNode$PacketResponder: PacketResponder 2 for block blk_-8796922771196404776 terminating
081110 123030 11161 INFO dfs.DataNode$PacketResponder: Received block blk_-8796922771196404776 of size 67108864 from /10.250.6.214
081110 123030 11172 INFO dfs.DataNode$PacketResponder: PacketResponder 1 for block blk_-8796922771196404776 terminating
081110 123030 11172 INFO dfs.DataNode$PacketResponder: Received block blk_-8796922771196404776 of size 67108864 from /10.250.6.214
081110 123030 11223 INFO dfs.DataNode$PacketResponder: PacketResponder 0 for block blk_-8796922771196404776 terminating
081110 123030 11223 INFO dfs.DataNode$PacketResponder: Received block blk_-8796922771196404776 of size 67108864 from /10.251.43.210
081110 123030 27 INFO dfs.FSNamesystem: BLOCK* NameSystem.addStoredBlock: blockMap updated: 10.250.6.214:50010 is added to blk_-8796922771196404776 size 67108864
081110 123030 28 INFO dfs.FSNamesystem: BLOCK* NameSystem.addStoredBlock: blockMap updated: 10.251.43.210:50010 is added to blk_-8796922771196404776 size 67108864
081110 123030 33 INFO dfs.FSNamesystem: BLOCK* NameSystem.addStoredBlock: blockMap updated: 10.251.193.224:50010 is added to blk_-8796922771196404776 size 67108864
081110 194333 14286 INFO dfs.DataNode$DataXceiver: 10.251.193.224:50010 Served block blk_-8796922771196404776 to /10.251.193.224
081110 194351 14283 WARN dfs.DataNode$DataXceiver: 10.251.43.210:50010:Got exception while serving blk_-8796922771196404776 to /10.251.31.5:
081110 194448 14279 INFO dfs.DataNode$DataXceiver: 10.251.43.210:50010 Served block blk_-8796922771196404776 to /10.251.67.113
081111 023034 27 INFO dfs.FSNamesystem: BLOCK* NameSystem.delete: blk_-8796922771196404776 is added to invalidSet of 10.250.6.214:50010
081111 023034 27 INFO dfs.FSNamesystem: BLOCK* NameSystem.delete: blk_-8796922771196404776 is added to invalidSet of 10.251.193.224:50010
081111 023034 27 INFO dfs.FSNamesystem: BLOCK* NameSystem.delete: blk_-8796922771196404776 is added to invalidSet of 10.251.43.210:50010
081111 023121 19 INFO dfs.FSDataset: Deleting block blk_-8796922771196404776 file /mnt/hadoop/dfs/data/current/subdir36/blk_-8796922771196404776
081111 023128 19 INFO dfs.FSDataset: Deleting block blk_-8796922771196404776 file /mnt/hadoop/dfs/data/current/subdir47/blk_-8796922771196404776
081111 023141 19 INFO dfs.FSDataset: Deleting block blk_-8796922771196404776 file /mnt/hadoop/dfs/data/current/subdir13/blk_-8796922771196404776
081111 065245 22634 INFO dfs.DataNode$DataXceiver: Receiving block blk_-3561143027556956305 src: /10.251.214.67:42256 dest: /10.251.214.67:50010
081111 065245 33 INFO dfs.FSNamesystem: BLOCK* NameSystem.allocateBlock: /user/root/rand6/_temporary/_task_200811101024_0013_m_000116_0/part-00116. blk_-3561143027556956305
081111 065246 22451 INFO dfs.DataNode$DataXceiver: Receiving block blk_-3561143027556956305 src: /10.251.214.67:48400 dest: /10.251.214.67:50010
081111 065246 22538 INFO dfs.DataNode$DataXceiver: Receiving block blk_-3561143027556956305 src: /10.251.65.203:52662 dest: /10.251.65.203:50010
081111 065354 22452 INFO dfs.DataNode$PacketResponder: PacketResponder 1 for block blk_-3561143027556956305 terminating
081111 065354 22452 INFO dfs.DataNode$PacketResponder: Received block blk_-3561143027556956305 of size 67108864 from /10.251.214.67
081111 065354 22539 INFO dfs.DataNode$PacketResponder: PacketResponder 0 for block blk_-3561143027556956305 terminating
081111 065354 22539 INFO dfs.DataNode$PacketResponder: Received block blk_-3561143027556956305 of size 67108864 from /10.251.65.203
081111 065354 22635 INFO dfs.DataNode$PacketResponder: PacketResponder 2 for block blk_-3561143027556956305 terminating
081111 065354 22635 INFO dfs.DataNode$PacketResponder: Received block blk_-3561143027556956305 of size 67108864 from /10.251.214.67
081111 065453 29 INFO dfs.FSNamesystem: BLOCK* NameSystem.addStoredBlock: blockMap updated: 10.251.65.203:50010 is added to blk_-3561143027556956305 size 67108864
081111 065539 35 INFO dfs.FSNamesystem: BLOCK* NameSystem.addStoredBlock: blockMap updated: 10.251.199.150:50010 is added to blk_-3561143027556956305 size 67108864
081111 065540 32 INFO dfs.FSNamesystem: BLOCK* NameSystem.addStoredBlock: blockMap updated: 10.251.214.67:50010 is added to blk_-3561143027556956305 size 67108864
081111 085907 27 INFO dfs.FSNamesystem: BLOCK* NameSystem.delete: blk_-3561143027556956305 is added to invalidSet of 10.251.199.150:50010
081111 085907 27 INFO dfs.FSNamesystem: BLOCK* NameSystem.delete: blk_-3561143027556956305 is added to invalidSet of 10.251.214.67:50010
081111 085907 27 INFO dfs.FSNamesystem: BLOCK* NameSystem.delete: blk_-3561143027556956305 is added to invalidSet of 10.251.65.203:50010
081111 090031 19 INFO dfs.FSDataset: Deleting block blk_-3561143027556956305 file /mnt/hadoop/dfs/data/current/subdir16/blk_-3561143027556956305
081111 090038 19 INFO dfs.FSDataset: Deleting block blk_-3561143027556956305 file /mnt/hadoop/dfs/data/current/subdir16/blk_-3561143027556956305
081111 090119 19 INFO dfs.FSDataset: Deleting block blk_-3561143027556956305 file /mnt/hadoop/dfs/data/current/subdir43/blk_-3561143027556956305
081110 230308 16791 INFO dfs.DataNode$DataXceiver: Receiving block blk_5690688901757365620 src: /10.251.26.131:57361 dest: /10.251.26.131:50010
081110 230308 16845 INFO dfs.DataNode$DataXceiver: Receiving block blk_5690688901757365620 src: /10.251.26.131:40571 dest: /10.251.26.131:50010
081110 230308 33 INFO dfs.FSNamesystem: BLOCK* NameSystem.allocateBlock: /user/root/randtxt3/_temporary/_task_200811101024_0007_m_001809_0/part-01809. blk_5690688901757365620
081110 230309 16899 INFO dfs.DataNode$DataXceiver: Receiving block blk_5690688901757365620 src: /10.251.39.64:48772 dest: /10.251.39.64:50010
081110 230344 16900 INFO dfs.DataNode$PacketResponder: PacketResponder 0 for block blk_5690688901757365620 terminating
081110 230344 16900 INFO dfs.DataNode$PacketResponder: Received block blk_5690688901757365620 of size 67108864 from /10.251.39.64
081110 230344 27 INFO dfs.FSNamesystem: BLOCK* NameSystem.addStoredBlock: blockMap updated: 10.251.126.22:50010 is added to blk_5690688901757365620 size 67108864
081110 230345 16792 INFO dfs.DataNode$PacketResponder: PacketResponder 2 for block blk_5690688901757365620 terminating
081110 230345 16792 INFO dfs.DataNode$PacketResponder: Received block blk_5690688901757365620 of size 67108864 from /10.251.26.131
081110 230345 16846 INFO dfs.DataNode$PacketResponder: PacketResponder 1 for block blk_5690688901757365620 terminating
081110 230345 16846 INFO dfs.DataNode$PacketResponder: Received block blk_5690688901757365620 of size 67108864 from /10.251.26.131
081110 230345 29 INFO dfs.FSNamesystem: BLOCK* NameSystem.addStoredBlock: blockMap updated: 10.251.26.131:50010 is added to blk_5690688901757365620 size 67108864
081110 230345 35 INFO dfs.FSNamesystem: BLOCK* NameSystem.addStoredBlock: blockMap updated: 10.251.39.64:50010 is added to blk_5690688901757365620 size 67108864
081111 044349 29 INFO dfs.FSNamesystem: BLOCK* NameSystem.delete: blk_5690688901757365620 is added to invalidSet of 10.251.126.22:50010
081111 044349 29 INFO dfs.FSNamesystem: BLOCK* NameSystem.delete: blk_5690688901757365620 is added to invalidSet of 10.251.26.131:50010
081111 044349 29 INFO dfs.FSNamesystem: BLOCK* NameSystem.delete: blk_5690688901757365620 is added to invalidSet of 10.251.39.64:50010
081111 044728 18 INFO dfs.FSDataset: Deleting block blk_5690688901757365620 file /mnt/hadoop/dfs/data/current/subdir19/blk_5690688901757365620
081111 044756 19 INFO dfs.FSDataset: Deleting block blk_5690688901757365620 file /mnt/hadoop/dfs/data/current/subdir58/blk_5690688901757365620
081111 044800 19 INFO dfs.FSDataset: Deleting block blk_5690688901757365620 file /mnt/hadoop/dfs/data/current/subdir42/blk_5690688901757365620
081111 093301 31 INFO dfs.FSNamesystem: BLOCK* NameSystem.allocateBlock: /user/root/rand8/_temporary/_task_200811101024_0015_m_001015_0/part-01015. blk_-5578766752142485279
081111 093302 25720 INFO dfs.DataNode$DataXceiver: Receiving block blk_-5578766752142485279 src: /10.251.71.16:50709 dest: /10.251.71.16:50010
081111 093303 25592 INFO dfs.DataNode$DataXceiver: Receiving block blk_-5578766752142485279 src: /10.250.15.101:34652 dest: /10.250.15.101:50010
081111 093303 25608 INFO dfs.DataNode$DataXceiver: Receiving block blk_-5578766752142485279 src: /10.251.71.16:39471 dest: /10.251.71.16:50010
081111 093342 25593 INFO dfs.DataNode$PacketResponder: PacketResponder 0 for block blk_-5578766752142485279 terminating
081111 093342 25593 INFO dfs.DataNode$PacketResponder: Received block blk_-5578766752142485279 of size 67108864 from /10.250.15.101
081111 093342 25609 INFO dfs.DataNode$PacketResponder: PacketResponder 1 for block blk_-5578766752142485279 terminating
081111 093342 25609 INFO dfs.DataNode$PacketResponder: Received block blk_-5578766752142485279 of size 67108864 from /10.251.71.16
081111 093342 25722 INFO dfs.DataNode$PacketResponder: PacketResponder 2 for block blk_-5578766752142485279 terminating
081111 093342 25722 INFO dfs.DataNode$PacketResponder: Received block blk_-5578766752142485279 of size 67108864 from /10.251.71.16
081111 093342 27 INFO dfs.FSNamesystem: BLOCK* NameSystem.addStoredBlock: blockMap updated: 10.250.15.101:50010 is added to blk_-5578766752142485279 size 67108864
081111 093342 31 INFO dfs.FSNamesystem: BLOCK* NameSystem.addStoredBlock: blockMap updated: 10.251.122.38:50010 is added to blk_-5578766752142485279 size 67108864
081111 093343 28 INFO dfs.FSNamesystem: BLOCK* NameSystem.addStoredBlock: blockMap updated: 10.251.71.16:50010 is added to blk_-5578766752142485279 size 67108864
081111 045357 20048 INFO dfs.DataNode$DataXceiver: Receiving block blk_2191508486610645077 src: /10.250.11.100:48701 dest: /10.250.11.100:50010
081111 045357 20247 INFO dfs.DataNode$DataXceiver: Receiving block blk_2191508486610645077 src: /10.251.123.99:47931 dest: /10.251.123.99:50010
081111 045357 20407 INFO dfs.DataNode$DataXceiver: Receiving block blk_2191508486610645077 src: /10.250.11.100:58627 dest: /10.250.11.100:50010
081111 045357 35 INFO dfs.FSNamesystem: BLOCK* NameSystem.allocateBlock: /user/root/rand5/_temporary/_task_200811101024_0011_m_000075_0/part-00075. blk_2191508486610645077
081111 045430 20049 INFO dfs.DataNode$PacketResponder: PacketResponder 1 for block blk_2191508486610645077 terminating
081111 045430 20049 INFO dfs.DataNode$PacketResponder: Received block blk_2191508486610645077 of size 67108864 from /10.250.11.100
081111 045430 20248 INFO dfs.DataNode$PacketResponder: PacketResponder 0 for block blk_2191508486610645077 terminating
081111 045430 20248 INFO dfs.DataNode$PacketResponder: Received block blk_2191508486610645077 of size 67108864 from /10.251.123.99
081111 045430 20409 INFO dfs.DataNode$PacketResponder: PacketResponder 2 for block blk_2191508486610645077 terminating
081111 045430 20409 INFO dfs.DataNode$PacketResponder: Received block blk_2191508486610645077 of size 67108864 from /10.250.11.100
081111 045430 27 INFO dfs.FSNamesystem: BLOCK* NameSystem.addStoredBlock: blockMap updated: 10.251.123.99:50010 is added to blk_2191508486610645077 size 67108864
081111 045430 30 INFO dfs.FSNamesystem: BLOCK* NameSystem.addStoredBlock: blockMap updated: 10.250.11.100:50010 is added to blk_2191508486610645077 size 67108864
081111 045430 30 INFO dfs.FSNamesystem: BLOCK* NameSystem.addStoredBlock: blockMap updated: 10.251.31.160:50010 is added to blk_2191508486610645077 size 67108864
081111 075617 28 INFO dfs.FSNamesystem: BLOCK* NameSystem.delete: blk_2191508486610645077 is added to invalidSet of 10.250.11.100:50010
081111 075617 28 INFO dfs.FSNamesystem: BLOCK* NameSystem.delete: blk_2191508486610645077 is added to invalidSet of 10.251.123.99:50010
081111 075617 28 INFO dfs.FSNamesystem: BLOCK* NameSystem.delete: blk_2191508486610645077 is added to invalidSet of 10.251.31.160:50010
081111 075835 18 INFO dfs.FSDataset: Deleting block blk_2191508486610645077 file /mnt/hadoop/dfs/data/current/blk_2191508486610645077
081111 075908 19 INFO dfs.FSDataset: Deleting block blk_2191508486610645077 file /mnt/hadoop/dfs/data/current/subdir49/blk_2191508486610645077
081111 075954 19 INFO dfs.FSDataset: Deleting block blk_2191508486610645077 file /mnt/hadoop/dfs/data/current/blk_2191508486610645077
081111 083524 24380 INFO dfs.DataNode$DataXceiver: Receiving block blk_1886201063556799885 src: /10.251.26.8:45041 dest: /10.251.26.8:50010
081111 083524 24736 INFO dfs.DataNode$DataXceiver: Receiving block blk_1886201063556799885 src: /10.251.26.8:42032 dest: /10.251.26.8:50010
081111 083524 30 INFO dfs.FSNamesystem: BLOCK* NameSystem.allocateBlock: /user/root/rand7/_temporary/_task_200811101024_0014_m_001464_0/part-01464. blk_1886201063556799885
081111 083528 24441 INFO dfs.DataNode$DataXceiver: Receiving block blk_1886201063556799885 src: /10.251.125.193:41565 dest: /10.251.125.193:50010
081111 083612 24386 INFO dfs.DataNode$PacketResponder: PacketResponder 1 for block blk_1886201063556799885 terminating
081111 083612 24386 INFO dfs.DataNode$PacketResponder: Received block blk_1886201063556799885 of size 67108864 from /10.251.26.8
081111 083612 24442 INFO dfs.DataNode$PacketResponder: PacketResponder 0 for block blk_1886201063556799885 terminating
081111 083612 24442 INFO dfs.DataNode$PacketResponder: Received block blk_1886201063556799885 of size 67108864 from /10.251.125.193
081111 083612 24742 INFO dfs.DataNode$PacketResponder: PacketResponder 2 for block blk_1886201063556799885 terminating
081111 083612 24742 INFO dfs.DataNode$PacketResponder: Received block blk_1886201063556799885 of size 67108864 from /10.251.26.8
081111 083612 29 INFO dfs.FSNamesystem: BLOCK* NameSystem.addStoredBlock: blockMap updated: 10.251.39.64:50010 is added to blk_1886201063556799885 size 67108864
081111 083612 32 INFO dfs.FSNamesystem: BLOCK* NameSystem.addStoredBlock: blockMap updated: 10.251.125.193:50010 is added to blk_1886201063556799885 size 67108864
081111 083612 35 INFO dfs.FSNamesystem: BLOCK* NameSystem.addStoredBlock: blockMap updated: 10.251.26.8:50010 is added to blk_1886201063556799885 size 67108864
081109 210329 1208 INFO dfs.DataNode$DataXceiver: Receiving block blk_7441865474856316286 src: /10.251.38.197:57962 dest: /10.251.38.197:50010
081109 210329 1209 INFO dfs.DataNode$DataXceiver: Receiving block blk_7441865474856316286 src: /10.251.38.197:55964 dest: /10.251.38.197:50010
081109 210329 1241 INFO dfs.DataNode$DataXceiver: Receiving block blk_7441865474856316286 src: /10.250.7.96:54629 dest: /10.250.7.96:50010
081109 210329 29 INFO dfs.FSNamesystem: BLOCK* NameSystem.allocateBlock: /user/root/rand/_temporary/_task_200811092030_0001_m_000805_0/part-00805. blk_7441865474856316286
081109 210355 1209 INFO dfs.DataNode$PacketResponder: PacketResponder 1 for block blk_7441865474856316286 terminating
081109 210355 1209 INFO dfs.DataNode$PacketResponder: Received block blk_7441865474856316286 of size 67108864 from /10.251.38.197
081109 210355 1210 INFO dfs.DataNode$PacketResponder: PacketResponder 2 for block blk_7441865474856316286 terminating
081109 210355 1210 INFO dfs.DataNode$PacketResponder: Received block blk_7441865474856316286 of size 67108864 from /10.251.38.197
081109 210355 1242 INFO dfs.DataNode$PacketResponder: PacketResponder 0 for block blk_7441865474856316286 terminating
081109 210355 1242 INFO dfs.DataNode$PacketResponder: Received block blk_7441865474856316286 of size 67108864 from /10.250.7.96
081109 210355 30 INFO dfs.FSNamesystem: BLOCK* NameSystem.addStoredBlock: blockMap updated: 10.250.7.96:50010 is added to blk_7441865474856316286 size 67108864
081109 210355 33 INFO dfs.FSNamesystem: BLOCK* NameSystem.addStoredBlock: blockMap updated: 10.250.17.177:50010 is added to blk_7441865474856316286 size 67108864
081109 210355 33 INFO dfs.FSNamesystem: BLOCK* NameSystem.addStoredBlock: blockMap updated: 10.251.38.197:50010 is added to blk_7441865474856316286 size 67108864
081109 220645 3247 WARN dfs.DataNode$DataXceiver: 10.251.38.197:50010:Got exception while serving blk_7441865474856316286 to /10.250.6.223:
081109 220706 3248 INFO dfs.DataNode$DataXceiver: 10.251.38.197:50010 Served block blk_7441865474856316286 to /10.250.6.223
081109 220843 3282 WARN dfs.DataNode$DataXceiver: 10.251.38.197:50010:Got exception while serving blk_7441865474856316286 to /10.251.66.192:
081110 103104 30 INFO dfs.FSNamesystem: BLOCK* NameSystem.delete: blk_7441865474856316286 is added to invalidSet of 10.250.17.177:50010
081110 103104 30 INFO dfs.FSNamesystem: BLOCK* NameSystem.delete: blk_7441865474856316286 is added to invalidSet of 10.250.7.96:50010
081110 103104 30 INFO dfs.FSNamesystem: BLOCK* NameSystem.delete: blk_7441865474856316286 is added to invalidSet of 10.251.38.197:50010
081110 103711 19 INFO dfs.FSDataset: Deleting block blk_7441865474856316286 file /mnt/hadoop/dfs/data/current/subdir5/blk_7441865474856316286
081110 103726 19 INFO dfs.FSDataset: Deleting block blk_7441865474856316286 file /mnt/hadoop/dfs/data/current/subdir36/blk_7441865474856316286
081110 103800 19 INFO dfs.FSDataset: Deleting block blk_7441865474856316286 file /mnt/hadoop/dfs/data/current/subdir22/blk_7441865474856316286
081110 213255 14800 INFO dfs.DataNode$DataXceiver: Receiving block blk_235956236083739650 src: /10.250.10.213:55502 dest: /10.250.10.213:50010
081110 213255 15252 INFO dfs.DataNode$DataXceiver: Receiving block blk_235956236083739650 src: /10.250.10.213:42419 dest: /10.250.10.213:50010
081110 213255 33 INFO dfs.FSNamesystem: BLOCK* NameSystem.allocateBlock: /user/root/rand3/_temporary/_task_200811101024_0005_m_001069_0/part-01069. blk_235956236083739650
081110 213256 14713 INFO dfs.DataNode$DataXceiver: Receiving block blk_235956236083739650 src: /10.251.202.181:47361 dest: /10.251.202.181:50010
081110 213349 14714 INFO dfs.DataNode$PacketResponder: PacketResponder 0 for block blk_235956236083739650 terminating
081110 213349 14714 INFO dfs.DataNode$PacketResponder: Received block blk_235956236083739650 of size 67108864 from /10.251.202.181
081110 213350 14801 INFO dfs.DataNode$PacketResponder: PacketResponder 1 for block blk_235956236083739650 terminating
081110 213350 14801 INFO dfs.DataNode$PacketResponder: Received block blk_235956236083739650 of size 67108864 from /10.250.10.213
081110 213350 15256 INFO dfs.DataNode$PacketResponder: PacketResponder 2 for block blk_235956236083739650 terminating
081110 213350 15256 INFO dfs.DataNode$PacketResponder: Received block blk_235956236083739650 of size 67108864 from /10.250.10.213
081110 213350 32 INFO dfs.FSNamesystem: BLOCK* NameSystem.addStoredBlock: blockMap updated: 10.251.202.181:50010 is added to blk_235956236083739650 size 67108864
081110 213350 33 INFO dfs.FSNamesystem: BLOCK* NameSystem.addStoredBlock: blockMap updated: 10.251.126.255:50010 is added to blk_235956236083739650 size 67108864
081110 213350 35 INFO dfs.FSNamesystem: BLOCK* NameSystem.addStoredBlock: blockMap updated: 10.250.10.213:50010 is added to blk_235956236083739650 size 67108864
081110 220648 32 INFO dfs.FSNamesystem: BLOCK* NameSystem.delete: blk_235956236083739650 is added to invalidSet of 10.250.10.213:50010
081110 220648 32 INFO dfs.FSNamesystem: BLOCK* NameSystem.delete: blk_235956236083739650 is added to invalidSet of 10.251.126.255:50010
081110 220648 32 INFO dfs.FSNamesystem: BLOCK* NameSystem.delete: blk_235956236083739650 is added to invalidSet of 10.251.202.181:50010
081110 220856 19 INFO dfs.FSDataset: Deleting block blk_235956236083739650 file /mnt/hadoop/dfs/data/current/subdir32/blk_235956236083739650
081110 220901 19 INFO dfs.FSDataset: Deleting block blk_235956236083739650 file /mnt/hadoop/dfs/data/current/subdir52/blk_235956236083739650
081110 220907 19 INFO dfs.FSDataset: Deleting block blk_235956236083739650 file /mnt/hadoop/dfs/data/current/subdir56/blk_235956236083739650
081111 055733 21538 INFO dfs.DataNode$DataXceiver: Receiving block blk_3693247499302516887 src: /10.251.194.213:40515 dest: /10.251.194.213:50010
081111 055733 33 INFO dfs.FSNamesystem: BLOCK* NameSystem.allocateBlock: /user/root/randtxt5/_temporary/_task_200811101024_0012_m_000037_0/part-00037. blk_3693247499302516887
081111 055734 21476 INFO dfs.DataNode$DataXceiver: Receiving block blk_3693247499302516887 src: /10.251.194.213:42876 dest: /10.251.194.213:50010
081111 055734 21711 INFO dfs.DataNode$DataXceiver: Receiving block blk_3693247499302516887 src: /10.250.14.196:59024 dest: /10.250.14.196:50010
081111 055806 21477 INFO dfs.DataNode$PacketResponder: PacketResponder 1 for block blk_3693247499302516887 terminating
081111 055806 21477 INFO dfs.DataNode$PacketResponder: Received block blk_3693247499302516887 of size 67108864 from /10.251.194.213
081111 055806 21712 INFO dfs.DataNode$PacketResponder: PacketResponder 0 for block blk_3693247499302516887 terminating
081111 055806 21712 INFO dfs.DataNode$PacketResponder: Received block blk_3693247499302516887 of size 67108864 from /10.250.14.196
081111 055806 26 INFO dfs.FSNamesystem: BLOCK* NameSystem.addStoredBlock: blockMap updated: 10.250.14.196:50010 is added to blk_3693247499302516887 size 67108864
081111 055806 33 INFO dfs.FSNamesystem: BLOCK* NameSystem.addStoredBlock: blockMap updated: 10.251.123.20:50010 is added to blk_3693247499302516887 size 67108864
081111 055807 21539 INFO dfs.DataNode$PacketResponder: PacketResponder 2 for block blk_3693247499302516887 terminating
081111 055807 21539 INFO dfs.DataNode$PacketResponder: Received block blk_3693247499302516887 of size 67108864 from /10.251.194.213
081111 055807 31 INFO dfs.FSNamesystem: BLOCK* NameSystem.addStoredBlock: blockMap updated: 10.251.194.213:50010 is added to blk_3693247499302516887 size 67108864
081111 065204 26 INFO dfs.FSNamesystem: BLOCK* NameSystem.delete: blk_3693247499302516887 is added to invalidSet of 10.250.14.196:50010
081111 065204 26 INFO dfs.FSNamesystem: BLOCK* NameSystem.delete: blk_3693247499302516887 is added to invalidSet of 10.251.123.20:50010
081111 065204 26 INFO dfs.FSNamesystem: BLOCK* NameSystem.delete: blk_3693247499302516887 is added to invalidSet of 10.251.194.213:50010
081111 065435 19 INFO dfs.FSDataset: Deleting block blk_3693247499302516887 file /mnt/hadoop/dfs/data/current/subdir46/blk_3693247499302516887
081111 065508 19 INFO dfs.FSDataset: Deleting block blk_3693247499302516887 file /mnt/hadoop/dfs/data/current/subdir51/blk_3693247499302516887
081111 065509 19 INFO dfs.FSDataset: Deleting block blk_3693247499302516887 file /mnt/hadoop/dfs/data/current/subdir27/blk_3693247499302516887
081110 150353 12728 INFO dfs.DataNode$DataXceiver: Receiving block blk_4100007083822768906 src: /10.251.111.209:35097 dest: /10.251.111.209:50010
081110 150353 13083 INFO dfs.DataNode$DataXceiver: Receiving block blk_4100007083822768906 src: /10.251.111.209:58081 dest: /10.251.111.209:50010
081110 150353 13106 INFO dfs.DataNode$DataXceiver: Receiving block blk_4100007083822768906 src: /10.251.127.243:40925 dest: /10.251.127.243:50010
081110 150353 30 INFO dfs.FSNamesystem: BLOCK* NameSystem.allocateBlock: /user/root/sortrand2/_temporary/_task_200811101024_0003_r_000117_0/part-00117. blk_4100007083822768906
081110 150437 12729 INFO dfs.DataNode$PacketResponder: PacketResponder 1 for block blk_4100007083822768906 terminating
081110 150437 12729 INFO dfs.DataNode$PacketResponder: Received block blk_4100007083822768906 of size 67108864 from /10.251.111.209
081110 150437 13084 INFO dfs.DataNode$PacketResponder: PacketResponder 2 for block blk_4100007083822768906 terminating
081110 150437 13084 INFO dfs.DataNode$PacketResponder: Received block blk_4100007083822768906 of size 67108864 from /10.251.111.209
081110 150437 13107 INFO dfs.DataNode$PacketResponder: PacketResponder 0 for block blk_4100007083822768906 terminating
081110 150437 13107 INFO dfs.DataNode$PacketResponder: Received block blk_4100007083822768906 of size 67108864 from /10.251.127.243
081110 150437 26 INFO dfs.FSNamesystem: BLOCK* NameSystem.addStoredBlock: blockMap updated: 10.251.127.243:50010 is added to blk_4100007083822768906 size 67108864
081110 150437 27 INFO dfs.FSNamesystem: BLOCK* NameSystem.addStoredBlock: blockMap updated: 10.251.111.209:50010 is added to blk_4100007083822768906 size 67108864
081110 150437 32 INFO dfs.FSNamesystem: BLOCK* NameSystem.addStoredBlock: blockMap updated: 10.251.106.37:50010 is added to blk_4100007083822768906 size 67108864
081110 210119 28 INFO dfs.FSNamesystem: BLOCK* NameSystem.delete: blk_4100007083822768906 is added to invalidSet of 10.251.106.37:50010
081110 210119 28 INFO dfs.FSNamesystem: BLOCK* NameSystem.delete: blk_4100007083822768906 is added to invalidSet of 10.251.111.209:50010
081110 210119 28 INFO dfs.FSNamesystem: BLOCK* NameSystem.delete: blk_4100007083822768906 is added to invalidSet of 10.251.127.243:50010
081110 210546 18 INFO dfs.FSDataset: Deleting block blk_4100007083822768906 file /mnt/hadoop/dfs/data/current/subdir57/blk_4100007083822768906
081110 210557 19 INFO dfs.FSDataset: Deleting block blk_4100007083822768906 file /mnt/hadoop/dfs/data/current/subdir52/blk_4100007083822768906
081110 210614 19 INFO dfs.FSDataset: Deleting block blk_4100007083822768906 file /mnt/hadoop/dfs/data/current/subdir1/blk_4100007083822768906
081109 213016 2208 INFO dfs.DataNode$DataXceiver: Receiving block blk_835301586470625032 src: /10.251.75.49:46801 dest: /10.251.75.49:50010
081109 213016 2243 INFO dfs.DataNode$DataXceiver: Receiving block blk_835301586470625032 src: /10.251.111.228:43558 dest: /10.251.111.228:50010
081109 213016 2312 INFO dfs.DataNode$DataXceiver: Receiving block blk_835301586470625032 src: /10.251.111.228:33713 dest: /10.251.111.228:50010
081109 213016 33 INFO dfs.FSNamesystem: BLOCK* NameSystem.allocateBlock: /user/root/rand/_temporary/_task_200811092030_0001_m_001828_0/part-01828. blk_835301586470625032
081109 213049 2209 INFO dfs.DataNode$PacketResponder: PacketResponder 0 for block blk_835301586470625032 terminating
081109 213049 2209 INFO dfs.DataNode$PacketResponder: Received block blk_835301586470625032 of size 67108864 from /10.251.75.49
081109 213049 2245 INFO dfs.DataNode$PacketResponder: PacketResponder 2 for block blk_835301586470625032 terminating
081109 213049 2245 INFO dfs.DataNode$PacketResponder: Received block blk_835301586470625032 of size 67108864 from /10.251.111.228
081109 213049 2313 INFO dfs.DataNode$PacketResponder: PacketResponder 1 for block blk_835301586470625032 terminating
081109 213049 2313 INFO dfs.DataNode$PacketResponder: Received block blk_835301586470625032 of size 67108864 from /10.251.111.228
081109 213049 26 INFO dfs.FSNamesystem: BLOCK* NameSystem.addStoredBlock: blockMap updated: 10.251.111.228:50010 is added to blk_835301586470625032 size 67108864
081109 213049 32 INFO dfs.FSNamesystem: BLOCK* NameSystem.addStoredBlock: blockMap updated: 10.251.75.49:50010 is added to blk_835301586470625032 size 67108864
081109 213049 35 INFO dfs.FSNamesystem: BLOCK* NameSystem.addStoredBlock: blockMap updated: 10.251.203.179:50010 is added to blk_835301586470625032 size 67108864
081109 224542 3819 WARN dfs.DataNode$DataXceiver: 10.251.75.49:50010:Got exception while serving blk_835301586470625032 to /10.251.75.49:
081109 224603 3821 WARN dfs.DataNode$DataXceiver: 10.251.75.49:50010:Got exception while serving blk_835301586470625032 to /10.250.10.6:
081109 224627 3820 INFO dfs.DataNode$DataXceiver: 10.251.75.49:50010 Served block blk_835301586470625032 to /10.251.75.49
081110 071437 13 INFO dfs.DataBlockScanner: Verification succeeded for blk_835301586470625032
081110 103118 30 INFO dfs.FSNamesystem: BLOCK* NameSystem.delete: blk_835301586470625032 is added to invalidSet of 10.251.111.228:50010
081110 103118 30 INFO dfs.FSNamesystem: BLOCK* NameSystem.delete: blk_835301586470625032 is added to invalidSet of 10.251.203.179:50010
081110 103118 30 INFO dfs.FSNamesystem: BLOCK* NameSystem.delete: blk_835301586470625032 is added to invalidSet of 10.251.75.49:50010
081110 103508 19 INFO dfs.FSDataset: Deleting block blk_835301586470625032 file /mnt/hadoop/dfs/data/current/subdir44/blk_835301586470625032
081110 103528 19 INFO dfs.FSDataset: Deleting block blk_835301586470625032 file /mnt/hadoop/dfs/data/current/subdir36/blk_835301586470625032
081110 103704 19 INFO dfs.FSDataset: Deleting block blk_835301586470625032 file /mnt/hadoop/dfs/data/current/subdir23/blk_835301586470625032
081110 144551 12397 INFO dfs.DataNode$DataXceiver: Receiving block blk_7085189404202417583 src: /10.250.15.67:35466 dest: /10.250.15.67:50010
081110 144551 12578 INFO dfs.DataNode$DataXceiver: Receiving block blk_7085189404202417583 src: /10.251.123.1:56155 dest: /10.251.123.1:50010
081110 144551 12743 INFO dfs.DataNode$DataXceiver: Receiving block blk_7085189404202417583 src: /10.250.15.67:59210 dest: /10.250.15.67:50010
081110 144551 32 INFO dfs.FSNamesystem: BLOCK* NameSystem.allocateBlock: /user/root/sortrand2/_temporary/_task_200811101024_0003_r_000226_0/part-00226. blk_7085189404202417583
081110 144613 12398 INFO dfs.DataNode$PacketResponder: PacketResponder 2 for block blk_7085189404202417583 terminating
081110 144613 12398 INFO dfs.DataNode$PacketResponder: Received block blk_7085189404202417583 of size 67108864 from /10.250.15.67
081110 144613 12579 INFO dfs.DataNode$PacketResponder: PacketResponder 0 for block blk_7085189404202417583 terminating
081110 144613 12579 INFO dfs.DataNode$PacketResponder: Received block blk_7085189404202417583 of size 67108864 from /10.251.123.1
081110 144613 12744 INFO dfs.DataNode$PacketResponder: PacketResponder 1 for block blk_7085189404202417583 terminating
081110 144613 12744 INFO dfs.DataNode$PacketResponder: Received block blk_7085189404202417583 of size 67108864 from /10.250.15.67
081110 144613 29 INFO dfs.FSNamesystem: BLOCK* NameSystem.addStoredBlock: blockMap updated: 10.251.123.1:50010 is added to blk_7085189404202417583 size 67108864
081110 144613 31 INFO dfs.FSNamesystem: BLOCK* NameSystem.addStoredBlock: blockMap updated: 10.251.66.3:50010 is added to blk_7085189404202417583 size 67108864
081110 144613 32 INFO dfs.FSNamesystem: BLOCK* NameSystem.addStoredBlock: blockMap updated: 10.250.15.67:50010 is added to blk_7085189404202417583 size 67108864
081110 210126 28 INFO dfs.FSNamesystem: BLOCK* NameSystem.delete: blk_7085189404202417583 is added to invalidSet of 10.250.15.67:50010
081110 210126 28 INFO dfs.FSNamesystem: BLOCK* NameSystem.delete: blk_7085189404202417583 is added to invalidSet of 10.251.123.1:50010
081110 210126 28 INFO dfs.FSNamesystem: BLOCK* NameSystem.delete: blk_7085189404202417583 is added to invalidSet of 10.251.66.3:50010
081110 210608 18 INFO dfs.FSDataset: Deleting block blk_7085189404202417583 file /mnt/hadoop/dfs/data/current/subdir58/blk_7085189404202417583
081110 210632 19 INFO dfs.FSDataset: Deleting block blk_7085189404202417583 file /mnt/hadoop/dfs/data/current/subdir33/blk_7085189404202417583
081110 210646 19 INFO dfs.FSDataset: Deleting block blk_7085189404202417583 file /mnt/hadoop/dfs/data/current/subdir17/blk_7085189404202417583
081111 101110 26178 INFO dfs.DataNode$DataXceiver: Receiving block blk_-8298212637543039666 src: /10.251.38.214:45154 dest: /10.251.38.214:50010
081111 101110 26363 INFO dfs.DataNode$DataXceiver: Receiving block blk_-8298212637543039666 src: /10.251.27.63:46332 dest: /10.251.27.63:50010
081111 101110 26778 INFO dfs.DataNode$DataXceiver: Receiving block blk_-8298212637543039666 src: /10.251.27.63:36433 dest: /10.251.27.63:50010
081111 101110 27 INFO dfs.FSNamesystem: BLOCK* NameSystem.allocateBlock: /user/root/randtxt9/_temporary/_task_200811101024_0016_m_000313_0/part-00313. blk_-8298212637543039666
081111 101141 26179 INFO dfs.DataNode$PacketResponder: PacketResponder 0 for block blk_-8298212637543039666 terminating
081111 101141 26179 INFO dfs.DataNode$PacketResponder: Received block blk_-8298212637543039666 of size 67108864 from /10.251.38.214
081111 101141 26364 INFO dfs.DataNode$PacketResponder: PacketResponder 1 for block blk_-8298212637543039666 terminating
081111 101141 26364 INFO dfs.DataNode$PacketResponder: Received block blk_-8298212637543039666 of size 67108864 from /10.251.27.63
081111 101142 26779 INFO dfs.DataNode$PacketResponder: PacketResponder 2 for block blk_-8298212637543039666 terminating
081111 101142 26779 INFO dfs.DataNode$PacketResponder: Received block blk_-8298212637543039666 of size 67108864 from /10.251.27.63
081111 101142 28 INFO dfs.FSNamesystem: BLOCK* NameSystem.addStoredBlock: blockMap updated: 10.250.9.207:50010 is added to blk_-8298212637543039666 size 67108864
081111 101142 29 INFO dfs.FSNamesystem: BLOCK* NameSystem.addStoredBlock: blockMap updated: 10.251.38.214:50010 is added to blk_-8298212637543039666 size 67108864
081111 101142 31 INFO dfs.FSNamesystem: BLOCK* NameSystem.addStoredBlock: blockMap updated: 10.251.27.63:50010 is added to blk_-8298212637543039666 size 67108864
081111 110429 26 INFO dfs.FSNamesystem: BLOCK* NameSystem.delete: blk_-8298212637543039666 is added to invalidSet of 10.250.9.207:50010
081111 110429 26 INFO dfs.FSNamesystem: BLOCK* NameSystem.delete: blk_-8298212637543039666 is added to invalidSet of 10.251.27.63:50010
081111 110429 26 INFO dfs.FSNamesystem: BLOCK* NameSystem.delete: blk_-8298212637543039666 is added to invalidSet of 10.251.38.214:50010
081111 110529 19 INFO dfs.FSDataset: Deleting block blk_-8298212637543039666 file /mnt/hadoop/dfs/data/current/subdir25/blk_-8298212637543039666
081111 110534 19 INFO dfs.FSDataset: Deleting block blk_-8298212637543039666 file /mnt/hadoop/dfs/data/current/subdir31/blk_-8298212637543039666
081111 110539 19 INFO dfs.FSDataset: Deleting block blk_-8298212637543039666 file /mnt/hadoop/dfs/data/current/subdir9/blk_-8298212637543039666
081110 213347 15076 INFO dfs.DataNode$DataXceiver: Receiving block blk_1200675424119440864 src: /10.251.71.146:49634 dest: /10.251.71.146:50010
081110 213347 15133 INFO dfs.DataNode$DataXceiver: Receiving block blk_1200675424119440864 src: /10.251.71.146:42382 dest: /10.251.71.146:50010
081110 213347 27 INFO dfs.FSNamesystem: BLOCK* NameSystem.allocateBlock: /user/root/rand3/_temporary/_task_200811101024_0005_m_001024_0/part-01024. blk_1200675424119440864
081110 213350 15147 INFO dfs.DataNode$DataXceiver: Receiving block blk_1200675424119440864 src: /10.251.39.64:51804 dest: /10.251.39.64:50010
081110 213423 15079 INFO dfs.DataNode$PacketResponder: PacketResponder 2 for block blk_1200675424119440864 terminating
081110 213423 15079 INFO dfs.DataNode$PacketResponder: Received block blk_1200675424119440864 of size 67108864 from /10.251.71.146
081110 213423 15134 INFO dfs.DataNode$PacketResponder: PacketResponder 1 for block blk_1200675424119440864 terminating
081110 213423 15134 INFO dfs.DataNode$PacketResponder: Received block blk_1200675424119440864 of size 67108864 from /10.251.71.146
081110 213423 15148 INFO dfs.DataNode$PacketResponder: PacketResponder 0 for block blk_1200675424119440864 terminating
081110 213423 15148 INFO dfs.DataNode$PacketResponder: Received block blk_1200675424119440864 of size 67108864 from /10.251.39.64
081110 213423 28 INFO dfs.FSNamesystem: BLOCK* NameSystem.addStoredBlock: blockMap updated: 10.251.71.146:50010 is added to blk_1200675424119440864 size 67108864
081110 213423 29 INFO dfs.FSNamesystem: BLOCK* NameSystem.addStoredBlock: blockMap updated: 10.251.37.240:50010 is added to blk_1200675424119440864 size 67108864
081110 213423 35 INFO dfs.FSNamesystem: BLOCK* NameSystem.addStoredBlock: blockMap updated: 10.251.39.64:50010 is added to blk_1200675424119440864 size 67108864
081110 220647 32 INFO dfs.FSNamesystem: BLOCK* NameSystem.delete: blk_1200675424119440864 is added to invalidSet of 10.251.37.240:50010
081110 220647 32 INFO dfs.FSNamesystem: BLOCK* NameSystem.delete: blk_1200675424119440864 is added to invalidSet of 10.251.39.64:50010
081110 220647 32 INFO dfs.FSNamesystem: BLOCK* NameSystem.delete: blk_1200675424119440864 is added to invalidSet of 10.251.71.146:50010
081110 220843 19 INFO dfs.FSDataset: Deleting block blk_1200675424119440864 file /mnt/hadoop/dfs/data/current/subdir20/blk_1200675424119440864
081110 220914 18 INFO dfs.FSDataset: Deleting block blk_1200675424119440864 file /mnt/hadoop/dfs/data/current/subdir8/blk_1200675424119440864
081110 220918 19 INFO dfs.FSDataset: Deleting block blk_1200675424119440864 file /mnt/hadoop/dfs/data/current/subdir29/blk_1200675424119440864
081111 034906 19057 INFO dfs.DataNode$DataXceiver: Receiving block blk_-5475065956975947787 src: /10.250.15.240:56667 dest: /10.250.15.240:50010
081111 034906 26 INFO dfs.FSNamesystem: BLOCK* NameSystem.allocateBlock: /user/root/randtxt4/_temporary/_task_200811101024_0010_m_000423_0/part-00423. blk_-5475065956975947787
081111 034907 19144 INFO dfs.DataNode$DataXceiver: Receiving block blk_-5475065956975947787 src: /10.250.15.240:34085 dest: /10.250.15.240:50010
081111 034907 19259 INFO dfs.DataNode$DataXceiver: Receiving block blk_-5475065956975947787 src: /10.250.10.213:53451 dest: /10.250.10.213:50010
081111 034948 19146 INFO dfs.DataNode$PacketResponder: PacketResponder 1 for block blk_-5475065956975947787 terminating
081111 034948 19146 INFO dfs.DataNode$PacketResponder: Received block blk_-5475065956975947787 of size 67108864 from /10.250.15.240
081111 034948 19260 INFO dfs.DataNode$PacketResponder: PacketResponder 0 for block blk_-5475065956975947787 terminating
081111 034948 19260 INFO dfs.DataNode$PacketResponder: Received block blk_-5475065956975947787 of size 67108864 from /10.250.10.213
081111 034948 26 INFO dfs.FSNamesystem: BLOCK* NameSystem.addStoredBlock: blockMap updated: 10.250.10.213:50010 is added to blk_-5475065956975947787 size 67108864
081111 034948 34 INFO dfs.FSNamesystem: BLOCK* NameSystem.addStoredBlock: blockMap updated: 10.251.39.179:50010 is added to blk_-5475065956975947787 size 67108864
081111 034949 19058 INFO dfs.DataNode$PacketResponder: PacketResponder 2 for block blk_-5475065956975947787 terminating
081111 034949 19058 INFO dfs.DataNode$PacketResponder: Received block blk_-5475065956975947787 of size 67108864 from /10.250.15.240
081111 034949 32 INFO dfs.FSNamesystem: BLOCK* NameSystem.addStoredBlock: blockMap updated: 10.250.15.240:50010 is added to blk_-5475065956975947787 size 67108864
081110 014957 30 INFO dfs.FSNamesystem: BLOCK* NameSystem.allocateBlock: /user/root/randtxt/_temporary/_task_200811092030_0003_m_001684_0/part-01684. blk_1881595323235091296
081110 014957 5920 INFO dfs.DataNode$DataXceiver: Receiving block blk_1881595323235091296 src: /10.251.91.229:47382 dest: /10.251.91.229:50010
081110 014957 5924 INFO dfs.DataNode$DataXceiver: Receiving block blk_1881595323235091296 src: /10.251.37.240:37419 dest: /10.251.37.240:50010
081110 014957 5960 INFO dfs.DataNode$DataXceiver: Receiving block blk_1881595323235091296 src: /10.251.91.229:41667 dest: /10.251.91.229:50010
081110 015043 29 INFO dfs.FSNamesystem: BLOCK* NameSystem.addStoredBlock: blockMap updated: 10.250.10.213:50010 is added to blk_1881595323235091296 size 67108864
081110 015043 5925 INFO dfs.DataNode$PacketResponder: PacketResponder 0 for block blk_1881595323235091296 terminating
081110 015043 5925 INFO dfs.DataNode$PacketResponder: Received block blk_1881595323235091296 of size 67108864 from /10.251.37.240
081110 015045 30 INFO dfs.FSNamesystem: BLOCK* NameSystem.addStoredBlock: blockMap updated: 10.251.91.229:50010 is added to blk_1881595323235091296 size 67108864
081110 015045 33 INFO dfs.FSNamesystem: BLOCK* NameSystem.addStoredBlock: blockMap updated: 10.251.37.240:50010 is added to blk_1881595323235091296 size 67108864
081110 015045 5921 INFO dfs.DataNode$PacketResponder: PacketResponder 1 for block blk_1881595323235091296 terminating
081110 015045 5921 INFO dfs.DataNode$PacketResponder: Received block blk_1881595323235091296 of size 67108864 from /10.251.91.229
081110 015045 5961 INFO dfs.DataNode$PacketResponder: PacketResponder 2 for block blk_1881595323235091296 terminating
081110 015045 5961 INFO dfs.DataNode$PacketResponder: Received block blk_1881595323235091296 of size 67108864 from /10.251.91.229
081110 052557 6993 WARN dfs.DataNode$DataXceiver: 10.250.10.213:50010:Got exception while serving blk_1881595323235091296 to /10.251.39.160:
081110 052826 7004 INFO dfs.DataNode$DataXceiver: 10.250.10.213:50010 Served block blk_1881595323235091296 to /10.250.10.213
081110 053040 6987 INFO dfs.DataNode$DataXceiver: 10.251.37.240:50010 Served block blk_1881595323235091296 to /10.250.17.177
081110 071925 7743 WARN dfs.DataNode$DataXceiver: 10.250.10.213:50010:Got exception while serving blk_1881595323235091296 to /10.251.39.160:
081110 071950 7751 INFO dfs.DataNode$DataXceiver: 10.250.10.213:50010 Served block blk_1881595323235091296 to /10.250.10.213
081110 072007 7709 INFO dfs.DataNode$DataXceiver: 10.251.91.229:50010 Served block blk_1881595323235091296 to /10.250.17.177
081110 082730 8341 WARN dfs.DataNode$DataXceiver: 10.251.91.229:50010:Got exception while serving blk_1881595323235091296 to /10.251.39.160:
081110 082808 8378 INFO dfs.DataNode$DataXceiver: 10.250.10.213:50010 Served block blk_1881595323235091296 to /10.250.10.213
081110 082825 8349 INFO dfs.DataNode$DataXceiver: 10.251.91.229:50010 Served block blk_1881595323235091296 to /10.250.17.177
081110 103047 34 INFO dfs.FSNamesystem: BLOCK* NameSystem.delete: blk_1881595323235091296 is added to invalidSet of 10.250.10.213:50010
081110 103047 34 INFO dfs.FSNamesystem: BLOCK* NameSystem.delete: blk_1881595323235091296 is added to invalidSet of 10.251.37.240:50010
081110 103047 34 INFO dfs.FSNamesystem: BLOCK* NameSystem.delete: blk_1881595323235091296 is added to invalidSet of 10.251.91.229:50010
081110 103128 19 INFO dfs.FSDataset: Deleting block blk_1881595323235091296 file /mnt/hadoop/dfs/data/current/subdir56/blk_1881595323235091296
081110 103627 19 INFO dfs.FSDataset: Deleting block blk_1881595323235091296 file /mnt/hadoop/dfs/data/current/subdir27/blk_1881595323235091296
081110 103702 19 INFO dfs.FSDataset: Deleting block blk_1881595323235091296 file /mnt/hadoop/dfs/data/current/subdir27/blk_1881595323235091296
081110 014758 31 INFO dfs.FSNamesystem: BLOCK* NameSystem.allocateBlock: /user/root/randtxt/_temporary/_task_200811092030_0003_m_001516_0/part-01516. blk_9045277522507342026
081110 014758 5761 INFO dfs.DataNode$DataXceiver: Receiving block blk_9045277522507342026 src: /10.251.126.227:39495 dest: /10.251.126.227:50010
081110 014758 5877 INFO dfs.DataNode$DataXceiver: Receiving block blk_9045277522507342026 src: /10.251.111.130:38626 dest: /10.251.111.130:50010
081110 014758 5937 INFO dfs.DataNode$DataXceiver: Receiving block blk_9045277522507342026 src: /10.251.111.130:35802 dest: /10.251.111.130:50010
081110 014834 28 INFO dfs.FSNamesystem: BLOCK* NameSystem.addStoredBlock: blockMap updated: 10.250.9.207:50010 is added to blk_9045277522507342026 size 67108864
081110 014834 30 INFO dfs.FSNamesystem: BLOCK* NameSystem.addStoredBlock: blockMap updated: 10.251.111.130:50010 is added to blk_9045277522507342026 size 67108864
081110 014834 34 INFO dfs.FSNamesystem: BLOCK* NameSystem.addStoredBlock: blockMap updated: 10.251.126.227:50010 is added to blk_9045277522507342026 size 67108864
081110 014834 5762 INFO dfs.DataNode$PacketResponder: PacketResponder 0 for block blk_9045277522507342026 terminating
081110 014834 5762 INFO dfs.DataNode$PacketResponder: Received block blk_9045277522507342026 of size 67108864 from /10.251.126.227
081110 014834 5879 INFO dfs.DataNode$PacketResponder: PacketResponder 1 for block blk_9045277522507342026 terminating
081110 014834 5879 INFO dfs.DataNode$PacketResponder: Received block blk_9045277522507342026 of size 67108864 from /10.251.111.130
081110 014834 5938 INFO dfs.DataNode$PacketResponder: PacketResponder 2 for block blk_9045277522507342026 terminating
081110 014834 5938 INFO dfs.DataNode$PacketResponder: Received block blk_9045277522507342026 of size 67108864 from /10.251.111.130
081110 050916 6929 INFO dfs.DataNode$DataXceiver: 10.251.126.227:50010 Served block blk_9045277522507342026 to /10.251.126.227
081110 051350 6934 INFO dfs.DataNode$DataXceiver: 10.251.126.227:50010 Served block blk_9045277522507342026 to /10.251.201.204
081110 051523 6856 WARN dfs.DataNode$DataXceiver: 10.250.9.207:50010:Got exception while serving blk_9045277522507342026 to /10.251.43.21:
081110 071734 7607 INFO dfs.DataNode$DataXceiver: 10.250.9.207:50010 Served block blk_9045277522507342026 to /10.250.9.207
081110 071811 7693 WARN dfs.DataNode$DataXceiver: 10.251.126.227:50010:Got exception while serving blk_9045277522507342026 to /10.251.43.21:
081110 071817 7691 INFO dfs.DataNode$DataXceiver: 10.251.126.227:50010 Served block blk_9045277522507342026 to /10.251.67.225
081110 082544 8272 INFO dfs.DataNode$DataXceiver: 10.251.126.227:50010 Served block blk_9045277522507342026 to /10.251.126.227
081110 082634 8277 WARN dfs.DataNode$DataXceiver: 10.250.9.207:50010:Got exception while serving blk_9045277522507342026 to /10.251.91.15:
081110 082642 8357 INFO dfs.DataNode$DataXceiver: 10.251.111.130:50010 Served block blk_9045277522507342026 to /10.251.67.225
081110 103044 34 INFO dfs.FSNamesystem: BLOCK* NameSystem.delete: blk_9045277522507342026 is added to invalidSet of 10.250.9.207:50010
081110 103044 34 INFO dfs.FSNamesystem: BLOCK* NameSystem.delete: blk_9045277522507342026 is added to invalidSet of 10.251.111.130:50010
081110 103044 34 INFO dfs.FSNamesystem: BLOCK* NameSystem.delete: blk_9045277522507342026 is added to invalidSet of 10.251.126.227:50010
081110 103151 19 INFO dfs.FSDataset: Deleting block blk_9045277522507342026 file /mnt/hadoop/dfs/data/current/subdir0/blk_9045277522507342026
081110 103808 19 INFO dfs.FSDataset: Deleting block blk_9045277522507342026 file /mnt/hadoop/dfs/data/current/subdir63/blk_9045277522507342026
081110 103817 19 INFO dfs.FSDataset: Deleting block blk_9045277522507342026 file /mnt/hadoop/dfs/data/current/subdir9/blk_9045277522507342026
081111 041752 19746 INFO dfs.DataNode$DataXceiver: Receiving block blk_-5183753449188443979 src: /10.251.31.242:51932 dest: /10.251.31.242:50010
081111 041752 26 INFO dfs.FSNamesystem: BLOCK* NameSystem.allocateBlock: /user/root/randtxt4/_temporary/_task_200811101024_0010_m_001294_0/part-01294. blk_-5183753449188443979
081111 041753 19369 INFO dfs.DataNode$DataXceiver: Receiving block blk_-5183753449188443979 src: /10.251.75.79:46032 dest: /10.251.75.79:50010
081111 041753 19925 INFO dfs.DataNode$DataXceiver: Receiving block blk_-5183753449188443979 src: /10.251.31.242:35137 dest: /10.251.31.242:50010
081111 041822 19370 INFO dfs.DataNode$PacketResponder: PacketResponder 0 for block blk_-5183753449188443979 terminating
081111 041822 19370 INFO dfs.DataNode$PacketResponder: Received block blk_-5183753449188443979 of size 67108864 from /10.251.75.79
081111 041822 19747 INFO dfs.DataNode$PacketResponder: PacketResponder 2 for block blk_-5183753449188443979 terminating
081111 041822 19747 INFO dfs.DataNode$PacketResponder: Received block blk_-5183753449188443979 of size 67108864 from /10.251.31.242
081111 041822 28 INFO dfs.FSNamesystem: BLOCK* NameSystem.addStoredBlock: blockMap updated: 10.251.111.37:50010 is added to blk_-5183753449188443979 size 67108864
081111 041823 19926 INFO dfs.DataNode$PacketResponder: PacketResponder 1 for block blk_-5183753449188443979 terminating
081111 041823 19926 INFO dfs.DataNode$PacketResponder: Received block blk_-5183753449188443979 of size 67108864 from /10.251.31.242
081111 041823 27 INFO dfs.FSNamesystem: BLOCK* NameSystem.addStoredBlock: blockMap updated: 10.251.75.79:50010 is added to blk_-5183753449188443979 size 67108864
081111 041823 28 INFO dfs.FSNamesystem: BLOCK* NameSystem.addStoredBlock: blockMap updated: 10.251.31.242:50010 is added to blk_-5183753449188443979 size 67108864
081109 233957 28 INFO dfs.FSNamesystem: BLOCK* NameSystem.allocateBlock: /user/root/sortrand/_temporary/_task_200811092030_0002_r_000128_0/part-00128. blk_-1505478329039419242
081109 233957 4025 INFO dfs.DataNode$DataXceiver: Receiving block blk_-1505478329039419242 src: /10.251.90.134:60014 dest: /10.251.90.134:50010
081109 233957 4072 INFO dfs.DataNode$DataXceiver: Receiving block blk_-1505478329039419242 src: /10.251.38.214:54300 dest: /10.251.38.214:50010
081109 233957 4112 INFO dfs.DataNode$DataXceiver: Receiving block blk_-1505478329039419242 src: /10.251.90.134:33483 dest: /10.251.90.134:50010
081109 234027 29 INFO dfs.FSNamesystem: BLOCK* NameSystem.addStoredBlock: blockMap updated: 10.251.71.97:50010 is added to blk_-1505478329039419242 size 67108864
081109 234027 31 INFO dfs.FSNamesystem: BLOCK* NameSystem.addStoredBlock: blockMap updated: 10.251.90.134:50010 is added to blk_-1505478329039419242 size 67108864
081109 234027 34 INFO dfs.FSNamesystem: BLOCK* NameSystem.addStoredBlock: blockMap updated: 10.251.38.214:50010 is added to blk_-1505478329039419242 size 67108864
081109 234027 4026 INFO dfs.DataNode$PacketResponder: PacketResponder 2 for block blk_-1505478329039419242 terminating
081109 234027 4026 INFO dfs.DataNode$PacketResponder: Received block blk_-1505478329039419242 of size 67108864 from /10.251.90.134
081109 234027 4073 INFO dfs.DataNode$PacketResponder: PacketResponder 0 for block blk_-1505478329039419242 terminating
081109 234027 4073 INFO dfs.DataNode$PacketResponder: Received block blk_-1505478329039419242 of size 67108864 from /10.251.38.214
081109 234028 4113 INFO dfs.DataNode$PacketResponder: PacketResponder 1 for block blk_-1505478329039419242 terminating
081109 234028 4113 INFO dfs.DataNode$PacketResponder: Received block blk_-1505478329039419242 of size 67108864 from /10.251.90.134
081110 103134 30 INFO dfs.FSNamesystem: BLOCK* NameSystem.delete: blk_-1505478329039419242 is added to invalidSet of 10.251.38.214:50010
081110 103134 30 INFO dfs.FSNamesystem: BLOCK* NameSystem.delete: blk_-1505478329039419242 is added to invalidSet of 10.251.71.97:50010
081110 103134 30 INFO dfs.FSNamesystem: BLOCK* NameSystem.delete: blk_-1505478329039419242 is added to invalidSet of 10.251.90.134:50010
081110 103522 19 INFO dfs.FSDataset: Deleting block blk_-1505478329039419242 file /mnt/hadoop/dfs/data/current/subdir51/blk_-1505478329039419242
081110 103547 19 INFO dfs.FSDataset: Deleting block blk_-1505478329039419242 file /mnt/hadoop/dfs/data/current/subdir47/blk_-1505478329039419242
081110 103558 19 INFO dfs.FSDataset: Deleting block blk_-1505478329039419242 file /mnt/hadoop/dfs/data/current/subdir58/blk_-1505478329039419242
081110 224011 16235 INFO dfs.DataNode$DataXceiver: Receiving block blk_7873746907509226571 src: /10.250.15.198:37222 dest: /10.250.15.198:50010
081110 224011 16278 INFO dfs.DataNode$DataXceiver: Receiving block blk_7873746907509226571 src: /10.251.67.225:50308 dest: /10.251.67.225:50010
081110 224011 16658 INFO dfs.DataNode$DataXceiver: Receiving block blk_7873746907509226571 src: /10.251.67.225:45009 dest: /10.251.67.225:50010
081110 224011 29 INFO dfs.FSNamesystem: BLOCK* NameSystem.allocateBlock: /user/root/randtxt3/_temporary/_task_200811101024_0007_m_000894_0/part-00894. blk_7873746907509226571
081110 224031 16236 INFO dfs.DataNode$PacketResponder: PacketResponder 0 for block blk_7873746907509226571 terminating
081110 224031 16236 INFO dfs.DataNode$PacketResponder: Received block blk_7873746907509226571 of size 67108864 from /10.250.15.198
081110 224031 16279 INFO dfs.DataNode$PacketResponder: PacketResponder 1 for block blk_7873746907509226571 terminating
081110 224031 16279 INFO dfs.DataNode$PacketResponder: Received block blk_7873746907509226571 of size 67108864 from /10.251.67.225
081110 224031 16659 INFO dfs.DataNode$PacketResponder: PacketResponder 2 for block blk_7873746907509226571 terminating
081110 224031 16659 INFO dfs.DataNode$PacketResponder: Received block blk_7873746907509226571 of size 67108864 from /10.251.67.225
081110 224031 26 INFO dfs.FSNamesystem: BLOCK* NameSystem.addStoredBlock: blockMap updated: 10.251.67.225:50010 is added to blk_7873746907509226571 size 67108864
081110 224031 31 INFO dfs.FSNamesystem: BLOCK* NameSystem.addStoredBlock: blockMap updated: 10.251.42.246:50010 is added to blk_7873746907509226571 size 67108864
081110 224031 33 INFO dfs.FSNamesystem: BLOCK* NameSystem.addStoredBlock: blockMap updated: 10.250.15.198:50010 is added to blk_7873746907509226571 size 67108864
081111 044338 29 INFO dfs.FSNamesystem: BLOCK* NameSystem.delete: blk_7873746907509226571 is added to invalidSet of 10.250.15.198:50010
081111 044338 29 INFO dfs.FSNamesystem: BLOCK* NameSystem.delete: blk_7873746907509226571 is added to invalidSet of 10.251.42.246:50010
081111 044338 29 INFO dfs.FSNamesystem: BLOCK* NameSystem.delete: blk_7873746907509226571 is added to invalidSet of 10.251.67.225:50010
081111 044810 19 INFO dfs.FSDataset: Deleting block blk_7873746907509226571 file /mnt/hadoop/dfs/data/current/subdir36/blk_7873746907509226571
081111 044847 18 INFO dfs.FSDataset: Deleting block blk_7873746907509226571 file /mnt/hadoop/dfs/data/current/subdir58/blk_7873746907509226571
081111 044919 18 INFO dfs.FSDataset: Deleting block blk_7873746907509226571 file /mnt/hadoop/dfs/data/current/subdir6/blk_7873746907509226571
081110 105821 28 INFO dfs.FSNamesystem: BLOCK* NameSystem.allocateBlock: /user/root/rand/_temporary/_task_200811101024_0001_m_000867_0/part-00867. blk_-2042414203523327928
081110 105821 9446 INFO dfs.DataNode$DataXceiver: Receiving block blk_-2042414203523327928 src: /10.251.199.225:52534 dest: /10.251.199.225:50010
081110 105821 9520 INFO dfs.DataNode$DataXceiver: Receiving block blk_-2042414203523327928 src: /10.251.91.159:44283 dest: /10.251.91.159:50010
081110 105821 9560 INFO dfs.DataNode$DataXceiver: Receiving block blk_-2042414203523327928 src: /10.251.199.225:40938 dest: /10.251.199.225:50010
081110 105909 26 INFO dfs.FSNamesystem: BLOCK* NameSystem.addStoredBlock: blockMap updated: 10.251.199.225:50010 is added to blk_-2042414203523327928 size 67108864
081110 105909 27 INFO dfs.FSNamesystem: BLOCK* NameSystem.addStoredBlock: blockMap updated: 10.251.91.159:50010 is added to blk_-2042414203523327928 size 67108864
081110 105909 34 INFO dfs.FSNamesystem: BLOCK* NameSystem.addStoredBlock: blockMap updated: 10.251.39.179:50010 is added to blk_-2042414203523327928 size 67108864
081110 105909 9447 INFO dfs.DataNode$PacketResponder: PacketResponder 1 for block blk_-2042414203523327928 terminating
081110 105909 9447 INFO dfs.DataNode$PacketResponder: Received block blk_-2042414203523327928 of size 67108864 from /10.251.199.225
081110 105909 9521 INFO dfs.DataNode$PacketResponder: PacketResponder 0 for block blk_-2042414203523327928 terminating
081110 105909 9521 INFO dfs.DataNode$PacketResponder: Received block blk_-2042414203523327928 of size 67108864 from /10.251.91.159
081110 105909 9561 INFO dfs.DataNode$PacketResponder: PacketResponder 2 for block blk_-2042414203523327928 terminating
081110 105909 9561 INFO dfs.DataNode$PacketResponder: Received block blk_-2042414203523327928 of size 67108864 from /10.251.199.225
081110 111630 13 INFO dfs.DataBlockScanner: Verification succeeded for blk_-2042414203523327928
081110 131611 11752 WARN dfs.DataNode$DataXceiver: 10.251.39.179:50010:Got exception while serving blk_-2042414203523327928 to /10.250.17.177:
081110 131616 11763 WARN dfs.DataNode$DataXceiver: 10.251.91.159:50010:Got exception while serving blk_-2042414203523327928 to /10.251.203.179:
081110 131620 11753 INFO dfs.DataNode$DataXceiver: 10.251.39.179:50010 Served block blk_-2042414203523327928 to /10.250.17.177
081110 181718 13 INFO dfs.DataBlockScanner: Verification succeeded for blk_-2042414203523327928
081110 210148 28 INFO dfs.FSNamesystem: BLOCK* NameSystem.delete: blk_-2042414203523327928 is added to invalidSet of 10.251.199.225:50010
081110 210148 28 INFO dfs.FSNamesystem: BLOCK* NameSystem.delete: blk_-2042414203523327928 is added to invalidSet of 10.251.39.179:50010
081110 210148 28 INFO dfs.FSNamesystem: BLOCK* NameSystem.delete: blk_-2042414203523327928 is added to invalidSet of 10.251.91.159:50010
081110 210508 19 INFO dfs.FSDataset: Deleting block blk_-2042414203523327928 file /mnt/hadoop/dfs/data/current/subdir38/blk_-2042414203523327928
081110 210619 19 INFO dfs.FSDataset: Deleting block blk_-2042414203523327928 file /mnt/hadoop/dfs/data/current/subdir16/blk_-2042414203523327928
081110 210633 19 INFO dfs.FSDataset: Deleting block blk_-2042414203523327928 file /mnt/hadoop/dfs/data/current/subdir10/blk_-2042414203523327928
081109 233551 29 INFO dfs.FSNamesystem: BLOCK* NameSystem.allocateBlock: /user/root/sortrand/_temporary/_task_200811092030_0002_r_000181_0/part-00181. blk_-6883794164565489653
081109 233551 3956 INFO dfs.DataNode$DataXceiver: Receiving block blk_-6883794164565489653 src: /10.251.107.242:38810 dest: /10.251.107.242:50010
081109 233551 4131 INFO dfs.DataNode$DataXceiver: Receiving block blk_-6883794164565489653 src: /10.251.107.242:57205 dest: /10.251.107.242:50010
081109 233552 4101 INFO dfs.DataNode$DataXceiver: Receiving block blk_-6883794164565489653 src: /10.251.66.3:38777 dest: /10.251.66.3:50010
081109 233631 28 INFO dfs.FSNamesystem: BLOCK* NameSystem.addStoredBlock: blockMap updated: 10.250.10.176:50010 is added to blk_-6883794164565489653 size 67108864
081109 233631 33 INFO dfs.FSNamesystem: BLOCK* NameSystem.addStoredBlock: blockMap updated: 10.251.66.3:50010 is added to blk_-6883794164565489653 size 67108864
081109 233631 34 INFO dfs.FSNamesystem: BLOCK* NameSystem.addStoredBlock: blockMap updated: 10.251.107.242:50010 is added to blk_-6883794164565489653 size 67108864
081109 233631 3957 INFO dfs.DataNode$PacketResponder: PacketResponder 2 for block blk_-6883794164565489653 terminating
081109 233631 3957 INFO dfs.DataNode$PacketResponder: Received block blk_-6883794164565489653 of size 67108864 from /10.251.107.242
081109 233631 4103 INFO dfs.DataNode$PacketResponder: PacketResponder 0 for block blk_-6883794164565489653 terminating
081109 233631 4103 INFO dfs.DataNode$PacketResponder: Received block blk_-6883794164565489653 of size 67108864 from /10.251.66.3
081109 233631 4132 INFO dfs.DataNode$PacketResponder: PacketResponder 1 for block blk_-6883794164565489653 terminating
081109 233631 4132 INFO dfs.DataNode$PacketResponder: Received block blk_-6883794164565489653 of size 67108864 from /10.251.107.242
081110 103138 30 INFO dfs.FSNamesystem: BLOCK* NameSystem.delete: blk_-6883794164565489653 is added to invalidSet of 10.250.10.176:50010
081110 103138 30 INFO dfs.FSNamesystem: BLOCK* NameSystem.delete: blk_-6883794164565489653 is added to invalidSet of 10.251.107.242:50010
081110 103138 30 INFO dfs.FSNamesystem: BLOCK* NameSystem.delete: blk_-6883794164565489653 is added to invalidSet of 10.251.66.3:50010
081110 103453 19 INFO dfs.FSDataset: Deleting block blk_-6883794164565489653 file /mnt/hadoop/dfs/data/current/subdir48/blk_-6883794164565489653
081110 103507 19 INFO dfs.FSDataset: Deleting block blk_-6883794164565489653 file /mnt/hadoop/dfs/data/current/subdir10/blk_-6883794164565489653
081110 103534 19 INFO dfs.FSDataset: Deleting block blk_-6883794164565489653 file /mnt/hadoop/dfs/data/current/subdir8/blk_-6883794164565489653
081111 042446 19761 INFO dfs.DataNode$DataXceiver: Receiving block blk_1354639211495177817 src: /10.251.111.209:39058 dest: /10.251.111.209:50010
081111 042446 19897 INFO dfs.DataNode$DataXceiver: Receiving block blk_1354639211495177817 src: /10.251.43.21:60288 dest: /10.251.43.21:50010
081111 042446 20019 INFO dfs.DataNode$DataXceiver: Receiving block blk_1354639211495177817 src: /10.251.111.209:50434 dest: /10.251.111.209:50010
081111 042446 28 INFO dfs.FSNamesystem: BLOCK* NameSystem.allocateBlock: /user/root/randtxt4/_temporary/_task_200811101024_0010_m_001724_0/part-01724. blk_1354639211495177817
081111 042519 19762 INFO dfs.DataNode$PacketResponder: PacketResponder 1 for block blk_1354639211495177817 terminating
081111 042519 19762 INFO dfs.DataNode$PacketResponder: Received block blk_1354639211495177817 of size 67108864 from /10.251.111.209
081111 042519 19898 INFO dfs.DataNode$PacketResponder: PacketResponder 0 for block blk_1354639211495177817 terminating
081111 042519 19898 INFO dfs.DataNode$PacketResponder: Received block blk_1354639211495177817 of size 67108864 from /10.251.43.21
081111 042519 20020 INFO dfs.DataNode$PacketResponder: PacketResponder 2 for block blk_1354639211495177817 terminating
081111 042519 20020 INFO dfs.DataNode$PacketResponder: Received block blk_1354639211495177817 of size 67108864 from /10.251.111.209
081111 042519 26 INFO dfs.FSNamesystem: BLOCK* NameSystem.addStoredBlock: blockMap updated: 10.251.66.192:50010 is added to blk_1354639211495177817 size 67108864
081111 042519 32 INFO dfs.FSNamesystem: BLOCK* NameSystem.addStoredBlock: blockMap updated: 10.251.111.209:50010 is added to blk_1354639211495177817 size 67108864
081111 042519 33 INFO dfs.FSNamesystem: BLOCK* NameSystem.addStoredBlock: blockMap updated: 10.251.43.21:50010 is added to blk_1354639211495177817 size 67108864
081111 103256 26833 INFO dfs.DataNode$DataXceiver: Receiving block blk_626885534178129686 src: /10.251.105.189:44353 dest: /10.251.105.189:50010
081111 103256 31 INFO dfs.FSNamesystem: BLOCK* NameSystem.allocateBlock: /user/root/randtxt9/_temporary/_task_200811101024_0016_m_001051_0/part-01051. blk_626885534178129686
081111 103257 26839 INFO dfs.DataNode$DataXceiver: Receiving block blk_626885534178129686 src: /10.251.198.33:48970 dest: /10.251.198.33:50010
081111 103257 27297 INFO dfs.DataNode$DataXceiver: Receiving block blk_626885534178129686 src: /10.251.105.189:48716 dest: /10.251.105.189:50010
081111 103350 26834 INFO dfs.DataNode$PacketResponder: PacketResponder 2 for block blk_626885534178129686 terminating
081111 103350 26834 INFO dfs.DataNode$PacketResponder: Received block blk_626885534178129686 of size 67108864 from /10.251.105.189
081111 103350 26840 INFO dfs.DataNode$PacketResponder: PacketResponder 0 for block blk_626885534178129686 terminating
081111 103350 26840 INFO dfs.DataNode$PacketResponder: Received block blk_626885534178129686 of size 67108864 from /10.251.198.33
081111 103350 27298 INFO dfs.DataNode$PacketResponder: PacketResponder 1 for block blk_626885534178129686 terminating
081111 103350 27298 INFO dfs.DataNode$PacketResponder: Received block blk_626885534178129686 of size 67108864 from /10.251.105.189
081111 103350 31 INFO dfs.FSNamesystem: BLOCK* NameSystem.addStoredBlock: blockMap updated: 10.251.198.33:50010 is added to blk_626885534178129686 size 67108864
081111 103350 33 INFO dfs.FSNamesystem: BLOCK* NameSystem.addStoredBlock: blockMap updated: 10.250.10.213:50010 is added to blk_626885534178129686 size 67108864
081111 103351 33 INFO dfs.FSNamesystem: BLOCK* NameSystem.addStoredBlock: blockMap updated: 10.251.105.189:50010 is added to blk_626885534178129686 size 67108864
081111 110437 26 INFO dfs.FSNamesystem: BLOCK* NameSystem.delete: blk_626885534178129686 is added to invalidSet of 10.250.10.213:50010
081111 110437 26 INFO dfs.FSNamesystem: BLOCK* NameSystem.delete: blk_626885534178129686 is added to invalidSet of 10.251.105.189:50010
081111 110437 26 INFO dfs.FSNamesystem: BLOCK* NameSystem.delete: blk_626885534178129686 is added to invalidSet of 10.251.198.33:50010
081111 110544 19 INFO dfs.FSDataset: Deleting block blk_626885534178129686 file /mnt/hadoop/dfs/data/current/subdir62/blk_626885534178129686
081111 110558 19 INFO dfs.FSDataset: Deleting block blk_626885534178129686 file /mnt/hadoop/dfs/data/current/subdir54/blk_626885534178129686
081111 110607 18 INFO dfs.FSDataset: Deleting block blk_626885534178129686 file /mnt/hadoop/dfs/data/current/subdir41/blk_626885534178129686
081111 040302 19390 INFO dfs.DataNode$DataXceiver: Receiving block blk_-7482452023368992992 src: /10.251.43.192:47609 dest: /10.251.43.192:50010
081111 040302 19395 INFO dfs.DataNode$DataXceiver: Receiving block blk_-7482452023368992992 src: /10.251.107.196:39529 dest: /10.251.107.196:50010
081111 040302 19602 INFO dfs.DataNode$DataXceiver: Receiving block blk_-7482452023368992992 src: /10.251.43.192:44451 dest: /10.251.43.192:50010
081111 040302 26 INFO dfs.FSNamesystem: BLOCK* NameSystem.allocateBlock: /user/root/randtxt4/_temporary/_task_200811101024_0010_m_001081_0/part-01081. blk_-7482452023368992992
081111 040331 19391 INFO dfs.DataNode$PacketResponder: PacketResponder 1 for block blk_-7482452023368992992 terminating
081111 040331 19391 INFO dfs.DataNode$PacketResponder: Received block blk_-7482452023368992992 of size 67108864 from /10.251.43.192
081111 040331 19396 INFO dfs.DataNode$PacketResponder: PacketResponder 0 for block blk_-7482452023368992992 terminating
081111 040331 19396 INFO dfs.DataNode$PacketResponder: Received block blk_-7482452023368992992 of size 67108864 from /10.251.107.196
081111 040331 19603 INFO dfs.DataNode$PacketResponder: PacketResponder 2 for block blk_-7482452023368992992 terminating
081111 040331 19603 INFO dfs.DataNode$PacketResponder: Received block blk_-7482452023368992992 of size 67108864 from /10.251.43.192
081111 040331 28 INFO dfs.FSNamesystem: BLOCK* NameSystem.addStoredBlock: blockMap updated: 10.251.43.192:50010 is added to blk_-7482452023368992992 size 67108864
081111 040331 29 INFO dfs.FSNamesystem: BLOCK* NameSystem.addStoredBlock: blockMap updated: 10.251.107.196:50010 is added to blk_-7482452023368992992 size 67108864
081111 040331 34 INFO dfs.FSNamesystem: BLOCK* NameSystem.addStoredBlock: blockMap updated: 10.251.31.85:50010 is added to blk_-7482452023368992992 size 67108864
081109 235903 27 INFO dfs.FSNamesystem: BLOCK* NameSystem.allocateBlock: /user/root/sortrand/_temporary/_task_200811092030_0002_r_000350_0/part-00350. blk_-206576043061571498
081109 235903 4425 INFO dfs.DataNode$DataXceiver: Receiving block blk_-206576043061571498 src: /10.251.126.5:38058 dest: /10.251.126.5:50010
081109 235903 4522 INFO dfs.DataNode$DataXceiver: Receiving block blk_-206576043061571498 src: /10.251.37.240:32822 dest: /10.251.37.240:50010
081109 235903 4576 INFO dfs.DataNode$DataXceiver: Receiving block blk_-206576043061571498 src: /10.251.126.5:56041 dest: /10.251.126.5:50010
081109 235921 28 INFO dfs.FSNamesystem: BLOCK* NameSystem.addStoredBlock: blockMap updated: 10.251.37.240:50010 is added to blk_-206576043061571498 size 67108864
081109 235921 33 INFO dfs.FSNamesystem: BLOCK* NameSystem.addStoredBlock: blockMap updated: 10.250.7.32:50010 is added to blk_-206576043061571498 size 67108864
081109 235921 35 INFO dfs.FSNamesystem: BLOCK* NameSystem.addStoredBlock: blockMap updated: 10.251.126.5:50010 is added to blk_-206576043061571498 size 67108864
081109 235921 4426 INFO dfs.DataNode$PacketResponder: PacketResponder 1 for block blk_-206576043061571498 terminating
081109 235921 4426 INFO dfs.DataNode$PacketResponder: Received block blk_-206576043061571498 of size 67108864 from /10.251.126.5
081109 235921 4523 INFO dfs.DataNode$PacketResponder: PacketResponder 0 for block blk_-206576043061571498 terminating
081109 235921 4523 INFO dfs.DataNode$PacketResponder: Received block blk_-206576043061571498 of size 67108864 from /10.251.37.240
081109 235921 4577 INFO dfs.DataNode$PacketResponder: PacketResponder 2 for block blk_-206576043061571498 terminating
081109 235921 4577 INFO dfs.DataNode$PacketResponder: Received block blk_-206576043061571498 of size 67108864 from /10.251.126.5
081110 103150 30 INFO dfs.FSNamesystem: BLOCK* NameSystem.delete: blk_-206576043061571498 is added to invalidSet of 10.250.7.32:50010
081110 103150 30 INFO dfs.FSNamesystem: BLOCK* NameSystem.delete: blk_-206576043061571498 is added to invalidSet of 10.251.126.5:50010
081110 103150 30 INFO dfs.FSNamesystem: BLOCK* NameSystem.delete: blk_-206576043061571498 is added to invalidSet of 10.251.37.240:50010
081110 103513 19 INFO dfs.FSDataset: Deleting block blk_-206576043061571498 file /mnt/hadoop/dfs/data/current/subdir10/blk_-206576043061571498
081110 103525 19 INFO dfs.FSDataset: Deleting block blk_-206576043061571498 file /mnt/hadoop/dfs/data/current/subdir46/blk_-206576043061571498
081110 103607 19 INFO dfs.FSDataset: Deleting block blk_-206576043061571498 file /mnt/hadoop/dfs/data/current/subdir62/blk_-206576043061571498
081111 040225 19329 INFO dfs.DataNode$DataXceiver: Receiving block blk_-5616807365192186488 src: /10.251.90.239:43450 dest: /10.251.90.239:50010
081111 040225 30 INFO dfs.FSNamesystem: BLOCK* NameSystem.allocateBlock: /user/root/randtxt4/_temporary/_task_200811101024_0010_m_000756_0/part-00756. blk_-5616807365192186488
081111 040226 19546 INFO dfs.DataNode$DataXceiver: Receiving block blk_-5616807365192186488 src: /10.251.90.239:42979 dest: /10.251.90.239:50010
081111 040226 19566 INFO dfs.DataNode$DataXceiver: Receiving block blk_-5616807365192186488 src: /10.250.6.223:35544 dest: /10.250.6.223:50010
081111 040257 19330 INFO dfs.DataNode$PacketResponder: PacketResponder 2 for block blk_-5616807365192186488 terminating
081111 040257 19330 INFO dfs.DataNode$PacketResponder: Received block blk_-5616807365192186488 of size 67108864 from /10.251.90.239
081111 040257 19547 INFO dfs.DataNode$PacketResponder: PacketResponder 1 for block blk_-5616807365192186488 terminating
081111 040257 19547 INFO dfs.DataNode$PacketResponder: Received block blk_-5616807365192186488 of size 67108864 from /10.251.90.239
081111 040257 19567 INFO dfs.DataNode$PacketResponder: PacketResponder 0 for block blk_-5616807365192186488 terminating
081111 040257 19567 INFO dfs.DataNode$PacketResponder: Received block blk_-5616807365192186488 of size 67108864 from /10.250.6.223
081111 040257 28 INFO dfs.FSNamesystem: BLOCK* NameSystem.addStoredBlock: blockMap updated: 10.250.6.223:50010 is added to blk_-5616807365192186488 size 67108864
081111 040257 30 INFO dfs.FSNamesystem: BLOCK* NameSystem.addStoredBlock: blockMap updated: 10.251.90.239:50010 is added to blk_-5616807365192186488 size 67108864
081111 040257 32 INFO dfs.FSNamesystem: BLOCK* NameSystem.addStoredBlock: blockMap updated: 10.251.199.86:50010 is added to blk_-5616807365192186488 size 67108864
081111 041326 19615 INFO dfs.DataNode$DataXceiver: Receiving block blk_-3825425784976876236 src: /10.251.194.213:44325 dest: /10.251.194.213:50010
081111 041326 34 INFO dfs.FSNamesystem: BLOCK* NameSystem.allocateBlock: /user/root/randtxt4/_temporary/_task_200811101024_0010_m_000947_0/part-00947. blk_-3825425784976876236
081111 041327 19839 INFO dfs.DataNode$DataXceiver: Receiving block blk_-3825425784976876236 src: /10.251.194.213:60223 dest: /10.251.194.213:50010
081111 041328 19497 INFO dfs.DataNode$DataXceiver: Receiving block blk_-3825425784976876236 src: /10.251.197.226:56497 dest: /10.251.197.226:50010
081111 041339 19498 INFO dfs.DataNode$PacketResponder: PacketResponder 0 for block blk_-3825425784976876236 terminating
081111 041339 19498 INFO dfs.DataNode$PacketResponder: Received block blk_-3825425784976876236 of size 28494821 from /10.251.197.226
081111 041339 19840 INFO dfs.DataNode$PacketResponder: PacketResponder 1 for block blk_-3825425784976876236 terminating
081111 041339 19840 INFO dfs.DataNode$PacketResponder: Received block blk_-3825425784976876236 of size 28494821 from /10.251.194.213
081111 041339 27 INFO dfs.FSNamesystem: BLOCK* NameSystem.addStoredBlock: blockMap updated: 10.251.197.226:50010 is added to blk_-3825425784976876236 size 28494821
081111 041339 27 INFO dfs.FSNamesystem: BLOCK* NameSystem.addStoredBlock: blockMap updated: 10.251.35.1:50010 is added to blk_-3825425784976876236 size 28494821
081111 041340 19616 INFO dfs.DataNode$PacketResponder: PacketResponder 2 for block blk_-3825425784976876236 terminating
081111 041340 19616 INFO dfs.DataNode$PacketResponder: Received block blk_-3825425784976876236 of size 28494821 from /10.251.194.213
081111 041340 31 INFO dfs.FSNamesystem: BLOCK* NameSystem.addStoredBlock: blockMap updated: 10.251.194.213:50010 is added to blk_-3825425784976876236 size 28494821
081111 060358 29 INFO dfs.FSNamesystem: BLOCK* NameSystem.allocateBlock: /user/root/randtxt5/_temporary/_task_200811101024_0012_m_000671_0/part-00671. blk_-6391666039291443547
081111 060359 16868 INFO dfs.DataNode$DataXceiver: Receiving block blk_-6391666039291443547 src: /10.251.122.38:38640 dest: /10.251.122.38:50010
081111 060359 21644 INFO dfs.DataNode$DataXceiver: Receiving block blk_-6391666039291443547 src: /10.251.66.102:49822 dest: /10.251.66.102:50010
081111 060359 21730 INFO dfs.DataNode$DataXceiver: Receiving block blk_-6391666039291443547 src: /10.251.66.102:45778 dest: /10.251.66.102:50010
081111 060552 16869 INFO dfs.DataNode$PacketResponder: PacketResponder 0 for block blk_-6391666039291443547 terminating
081111 060552 16869 INFO dfs.DataNode$PacketResponder: Received block blk_-6391666039291443547 of size 67108864 from /10.251.122.38
081111 060552 21645 INFO dfs.DataNode$PacketResponder: PacketResponder 1 for block blk_-6391666039291443547 terminating
081111 060552 21645 INFO dfs.DataNode$PacketResponder: Received block blk_-6391666039291443547 of size 67108864 from /10.251.66.102
081111 060552 29 INFO dfs.FSNamesystem: BLOCK* NameSystem.addStoredBlock: blockMap updated: 10.251.39.160:50010 is added to blk_-6391666039291443547 size 67108864
081111 060552 30 INFO dfs.FSNamesystem: BLOCK* NameSystem.addStoredBlock: blockMap updated: 10.251.66.102:50010 is added to blk_-6391666039291443547 size 67108864
081111 060552 31 INFO dfs.FSNamesystem: BLOCK* NameSystem.addStoredBlock: blockMap updated: 10.251.122.38:50010 is added to blk_-6391666039291443547 size 67108864
081111 060553 21731 INFO dfs.DataNode$PacketResponder: PacketResponder 2 for block blk_-6391666039291443547 terminating
081111 060553 21731 INFO dfs.DataNode$PacketResponder: Received block blk_-6391666039291443547 of size 67108864 from /10.251.66.102
081111 065212 26 INFO dfs.FSNamesystem: BLOCK* NameSystem.delete: blk_-6391666039291443547 is added to invalidSet of 10.251.122.38:50010
081111 065212 26 INFO dfs.FSNamesystem: BLOCK* NameSystem.delete: blk_-6391666039291443547 is added to invalidSet of 10.251.39.160:50010
081111 065212 26 INFO dfs.FSNamesystem: BLOCK* NameSystem.delete: blk_-6391666039291443547 is added to invalidSet of 10.251.66.102:50010
081111 065322 19 INFO dfs.FSDataset: Deleting block blk_-6391666039291443547 file /mnt/hadoop/dfs/data/current/subdir16/blk_-6391666039291443547
081111 065432 19 INFO dfs.FSDataset: Deleting block blk_-6391666039291443547 file /mnt/hadoop/dfs/data/current/subdir45/blk_-6391666039291443547
081111 070623 19 INFO dfs.FSDataset: Deleting block blk_-6391666039291443547 file /mnt/hadoop/dfs/data/current/subdir36/blk_-6391666039291443547
081111 031517 18163 INFO dfs.DataNode$DataXceiver: Receiving block blk_-1554992580998908301 src: /10.251.123.195:52144 dest: /10.251.123.195:50010
081111 031517 28 INFO dfs.FSNamesystem: BLOCK* NameSystem.allocateBlock: /user/root/rand4/_temporary/_task_200811101024_0009_m_001573_0/part-01573. blk_-1554992580998908301
081111 031518 18468 INFO dfs.DataNode$DataXceiver: Receiving block blk_-1554992580998908301 src: /10.251.123.195:48243 dest: /10.251.123.195:50010
081111 031521 18529 INFO dfs.DataNode$DataXceiver: Receiving block blk_-1554992580998908301 src: /10.251.106.50:55440 dest: /10.251.106.50:50010
081111 031616 18166 INFO dfs.DataNode$PacketResponder: PacketResponder 2 for block blk_-1554992580998908301 terminating
081111 031616 18166 INFO dfs.DataNode$PacketResponder: Received block blk_-1554992580998908301 of size 67108864 from /10.251.123.195
081111 031616 18471 INFO dfs.DataNode$PacketResponder: PacketResponder 1 for block blk_-1554992580998908301 terminating
081111 031616 18471 INFO dfs.DataNode$PacketResponder: Received block blk_-1554992580998908301 of size 67108864 from /10.251.123.195
081111 031616 18530 INFO dfs.DataNode$PacketResponder: PacketResponder 0 for block blk_-1554992580998908301 terminating
081111 031616 18530 INFO dfs.DataNode$PacketResponder: Received block blk_-1554992580998908301 of size 67108864 from /10.251.106.50
081111 031616 29 INFO dfs.FSNamesystem: BLOCK* NameSystem.addStoredBlock: blockMap updated: 10.251.123.195:50010 is added to blk_-1554992580998908301 size 67108864
081111 031616 32 INFO dfs.FSNamesystem: BLOCK* NameSystem.addStoredBlock: blockMap updated: 10.251.106.50:50010 is added to blk_-1554992580998908301 size 67108864
081111 031617 29 INFO dfs.FSNamesystem: BLOCK* NameSystem.addStoredBlock: blockMap updated: 10.251.43.115:50010 is added to blk_-1554992580998908301 size 67108864
081111 044320 35 INFO dfs.FSNamesystem: BLOCK* NameSystem.delete: blk_-1554992580998908301 is added to invalidSet of 10.251.106.50:50010
081111 044320 35 INFO dfs.FSNamesystem: BLOCK* NameSystem.delete: blk_-1554992580998908301 is added to invalidSet of 10.251.123.195:50010
081111 044320 35 INFO dfs.FSNamesystem: BLOCK* NameSystem.delete: blk_-1554992580998908301 is added to invalidSet of 10.251.43.115:50010
081111 044637 19 INFO dfs.FSDataset: Deleting block blk_-1554992580998908301 file /mnt/hadoop/dfs/data/current/subdir14/blk_-1554992580998908301
081111 044647 19 INFO dfs.FSDataset: Deleting block blk_-1554992580998908301 file /mnt/hadoop/dfs/data/current/subdir0/blk_-1554992580998908301
081111 044720 18 INFO dfs.FSDataset: Deleting block blk_-1554992580998908301 file /mnt/hadoop/dfs/data/current/subdir7/blk_-1554992580998908301
081110 014754 26 INFO dfs.FSNamesystem: BLOCK* NameSystem.allocateBlock: /user/root/randtxt/_temporary/_task_200811092030_0003_m_001565_0/part-01565. blk_-7535515708866051456
081110 014754 5641 INFO dfs.DataNode$DataXceiver: Receiving block blk_-7535515708866051456 src: /10.250.7.96:48997 dest: /10.250.7.96:50010
081110 014754 5838 INFO dfs.DataNode$DataXceiver: Receiving block blk_-7535515708866051456 src: /10.251.203.129:34177 dest: /10.251.203.129:50010
081110 014754 5964 INFO dfs.DataNode$DataXceiver: Receiving block blk_-7535515708866051456 src: /10.250.7.96:44894 dest: /10.250.7.96:50010
081110 014833 26 INFO dfs.FSNamesystem: BLOCK* NameSystem.addStoredBlock: blockMap updated: 10.251.42.207:50010 is added to blk_-7535515708866051456 size 67108864
081110 014833 30 INFO dfs.FSNamesystem: BLOCK* NameSystem.addStoredBlock: blockMap updated: 10.250.7.96:50010 is added to blk_-7535515708866051456 size 67108864
081110 014833 31 INFO dfs.FSNamesystem: BLOCK* NameSystem.addStoredBlock: blockMap updated: 10.251.203.129:50010 is added to blk_-7535515708866051456 size 67108864
081110 014833 5642 INFO dfs.DataNode$PacketResponder: PacketResponder 1 for block blk_-7535515708866051456 terminating
081110 014833 5642 INFO dfs.DataNode$PacketResponder: Received block blk_-7535515708866051456 of size 67108864 from /10.250.7.96
081110 014833 5839 INFO dfs.DataNode$PacketResponder: PacketResponder 0 for block blk_-7535515708866051456 terminating
081110 014833 5839 INFO dfs.DataNode$PacketResponder: Received block blk_-7535515708866051456 of size 67108864 from /10.251.203.129
081110 014833 5965 INFO dfs.DataNode$PacketResponder: PacketResponder 2 for block blk_-7535515708866051456 terminating
081110 014833 5965 INFO dfs.DataNode$PacketResponder: Received block blk_-7535515708866051456 of size 67108864 from /10.250.7.96
081110 051716 6700 INFO dfs.DataNode$DataXceiver: 10.251.203.129:50010 Served block blk_-7535515708866051456 to /10.251.203.129
081110 051836 6907 INFO dfs.DataNode$DataXceiver: 10.251.42.207:50010 Served block blk_-7535515708866051456 to /10.251.74.227
081110 051957 6919 WARN dfs.DataNode$DataXceiver: 10.251.42.207:50010:Got exception while serving blk_-7535515708866051456 to /10.251.43.21:
081110 071829 7623 INFO dfs.DataNode$DataXceiver: 10.251.42.207:50010 Served block blk_-7535515708866051456 to /10.251.42.207
081110 071850 7457 WARN dfs.DataNode$DataXceiver: 10.251.203.129:50010:Got exception while serving blk_-7535515708866051456 to /10.251.39.144:
081110 071850 7628 INFO dfs.DataNode$DataXceiver: 10.251.42.207:50010 Served block blk_-7535515708866051456 to /10.251.199.150
081110 082634 8247 INFO dfs.DataNode$DataXceiver: 10.251.42.207:50010 Served block blk_-7535515708866051456 to /10.251.42.207
081110 082701 8251 WARN dfs.DataNode$DataXceiver: 10.251.42.207:50010:Got exception while serving blk_-7535515708866051456 to /10.251.43.21:
081110 082702 8489 INFO dfs.DataNode$DataXceiver: 10.250.7.96:50010 Served block blk_-7535515708866051456 to /10.251.74.227
081110 103045 34 INFO dfs.FSNamesystem: BLOCK* NameSystem.delete: blk_-7535515708866051456 is added to invalidSet of 10.250.7.96:50010
081110 103045 34 INFO dfs.FSNamesystem: BLOCK* NameSystem.delete: blk_-7535515708866051456 is added to invalidSet of 10.251.203.129:50010
081110 103045 34 INFO dfs.FSNamesystem: BLOCK* NameSystem.delete: blk_-7535515708866051456 is added to invalidSet of 10.251.42.207:50010
081110 103056 19 INFO dfs.FSDataset: Deleting block blk_-7535515708866051456 file /mnt/hadoop/dfs/data/current/subdir21/blk_-7535515708866051456
081110 103520 19 INFO dfs.FSDataset: Deleting block blk_-7535515708866051456 file /mnt/hadoop/dfs/data/current/subdir40/blk_-7535515708866051456
081110 103532 19 INFO dfs.FSDataset: Deleting block blk_-7535515708866051456 file /mnt/hadoop/dfs/data/current/subdir14/blk_-7535515708866051456
081111 084039 24403 INFO dfs.DataNode$DataXceiver: Receiving block blk_7886563508867473794 src: /10.251.43.210:42360 dest: /10.251.43.210:50010
081111 084039 24694 INFO dfs.DataNode$DataXceiver: Receiving block blk_7886563508867473794 src: /10.251.43.210:34385 dest: /10.251.43.210:50010
081111 084039 24893 INFO dfs.DataNode$DataXceiver: Receiving block blk_7886563508867473794 src: /10.251.123.132:46277 dest: /10.251.123.132:50010
081111 084039 35 INFO dfs.FSNamesystem: BLOCK* NameSystem.allocateBlock: /user/root/rand7/_temporary/_task_200811101024_0014_m_001354_0/part-01354. blk_7886563508867473794
081111 084123 24404 INFO dfs.DataNode$PacketResponder: PacketResponder 1 for block blk_7886563508867473794 terminating
081111 084123 24404 INFO dfs.DataNode$PacketResponder: Received block blk_7886563508867473794 of size 67108864 from /10.251.43.210
081111 084124 24695 INFO dfs.DataNode$PacketResponder: PacketResponder 2 for block blk_7886563508867473794 terminating
081111 084124 24695 INFO dfs.DataNode$PacketResponder: Received block blk_7886563508867473794 of size 67108864 from /10.251.43.210
081111 084124 24894 INFO dfs.DataNode$PacketResponder: PacketResponder 0 for block blk_7886563508867473794 terminating
081111 084124 24894 INFO dfs.DataNode$PacketResponder: Received block blk_7886563508867473794 of size 67108864 from /10.251.123.132
081111 084124 26 INFO dfs.FSNamesystem: BLOCK* NameSystem.addStoredBlock: blockMap updated: 10.251.43.210:50010 is added to blk_7886563508867473794 size 67108864
081111 084124 28 INFO dfs.FSNamesystem: BLOCK* NameSystem.addStoredBlock: blockMap updated: 10.251.123.132:50010 is added to blk_7886563508867473794 size 67108864
081111 084124 30 INFO dfs.FSNamesystem: BLOCK* NameSystem.addStoredBlock: blockMap updated: 10.251.199.86:50010 is added to blk_7886563508867473794 size 67108864
081109 211221 1567 INFO dfs.DataNode$DataXceiver: Receiving block blk_-7741459515993120373 src: /10.250.17.177:56799 dest: /10.250.17.177:50010
081109 211221 1570 INFO dfs.DataNode$DataXceiver: Receiving block blk_-7741459515993120373 src: /10.250.17.177:37120 dest: /10.250.17.177:50010
081109 211221 27 INFO dfs.FSNamesystem: BLOCK* NameSystem.allocateBlock: /user/root/rand/_temporary/_task_200811092030_0001_m_001288_0/part-01288. blk_-7741459515993120373
081109 211226 1576 INFO dfs.DataNode$DataXceiver: Receiving block blk_-7741459515993120373 src: /10.251.214.67:60983 dest: /10.251.214.67:50010
081109 211308 1572 INFO dfs.DataNode$PacketResponder: PacketResponder 1 for block blk_-7741459515993120373 terminating
081109 211308 1572 INFO dfs.DataNode$PacketResponder: Received block blk_-7741459515993120373 of size 67108864 from /10.250.17.177
081109 211308 1575 INFO dfs.DataNode$PacketResponder: PacketResponder 2 for block blk_-7741459515993120373 terminating
081109 211308 1575 INFO dfs.DataNode$PacketResponder: Received block blk_-7741459515993120373 of size 67108864 from /10.250.17.177
081109 211308 1578 INFO dfs.DataNode$PacketResponder: PacketResponder 0 for block blk_-7741459515993120373 terminating
081109 211308 1578 INFO dfs.DataNode$PacketResponder: Received block blk_-7741459515993120373 of size 67108864 from /10.251.214.67
081109 211308 30 INFO dfs.FSNamesystem: BLOCK* NameSystem.addStoredBlock: blockMap updated: 10.250.17.177:50010 is added to blk_-7741459515993120373 size 67108864
081109 211308 30 INFO dfs.FSNamesystem: BLOCK* NameSystem.addStoredBlock: blockMap updated: 10.251.214.67:50010 is added to blk_-7741459515993120373 size 67108864
081109 211308 30 INFO dfs.FSNamesystem: BLOCK* NameSystem.addStoredBlock: blockMap updated: 10.251.27.63:50010 is added to blk_-7741459515993120373 size 67108864
081109 222253 3512 WARN dfs.DataNode$DataXceiver: 10.251.27.63:50010:Got exception while serving blk_-7741459515993120373 to /10.250.6.214:
081109 222317 3513 INFO dfs.DataNode$DataXceiver: 10.251.27.63:50010 Served block blk_-7741459515993120373 to /10.250.6.214
081109 222543 3557 WARN dfs.DataNode$DataXceiver: 10.250.17.177:50010:Got exception while serving blk_-7741459515993120373 to /10.250.17.177:
081110 103110 30 INFO dfs.FSNamesystem: BLOCK* NameSystem.delete: blk_-7741459515993120373 is added to invalidSet of 10.250.17.177:50010
081110 103110 30 INFO dfs.FSNamesystem: BLOCK* NameSystem.delete: blk_-7741459515993120373 is added to invalidSet of 10.251.214.67:50010
081110 103110 30 INFO dfs.FSNamesystem: BLOCK* NameSystem.delete: blk_-7741459515993120373 is added to invalidSet of 10.251.27.63:50010
081110 103237 19 INFO dfs.FSDataset: Deleting block blk_-7741459515993120373 file /mnt/hadoop/dfs/data/current/subdir56/blk_-7741459515993120373
081110 103436 19 INFO dfs.FSDataset: Deleting block blk_-7741459515993120373 file /mnt/hadoop/dfs/data/current/subdir38/blk_-7741459515993120373
081110 103502 19 INFO dfs.FSDataset: Deleting block blk_-7741459515993120373 file /mnt/hadoop/dfs/data/current/subdir24/blk_-7741459515993120373
081110 112756 10045 INFO dfs.DataNode$DataXceiver: Receiving block blk_-2668659484325776203 src: /10.251.38.214:60224 dest: /10.251.38.214:50010
081110 112756 10066 INFO dfs.DataNode$DataXceiver: Receiving block blk_-2668659484325776203 src: /10.251.38.214:46481 dest: /10.251.38.214:50010
081110 112756 31 INFO dfs.FSNamesystem: BLOCK* NameSystem.allocateBlock: /user/root/rand/_temporary/_task_200811101024_0001_m_001639_0/part-01639. blk_-2668659484325776203
081110 112800 10032 INFO dfs.DataNode$DataXceiver: Receiving block blk_-2668659484325776203 src: /10.251.194.102:60107 dest: /10.251.194.102:50010
081110 112829 10033 INFO dfs.DataNode$PacketResponder: PacketResponder 0 for block blk_-2668659484325776203 terminating
081110 112829 10033 INFO dfs.DataNode$PacketResponder: Received block blk_-2668659484325776203 of size 3559182 from /10.251.194.102
081110 112829 10049 INFO dfs.DataNode$PacketResponder: PacketResponder 1 for block blk_-2668659484325776203 terminating
081110 112829 10049 INFO dfs.DataNode$PacketResponder: Received block blk_-2668659484325776203 of size 3559182 from /10.251.38.214
081110 112829 10067 INFO dfs.DataNode$PacketResponder: PacketResponder 2 for block blk_-2668659484325776203 terminating
081110 112829 10067 INFO dfs.DataNode$PacketResponder: Received block blk_-2668659484325776203 of size 3559182 from /10.251.38.214
081110 112829 31 INFO dfs.FSNamesystem: BLOCK* NameSystem.addStoredBlock: blockMap updated: 10.251.194.102:50010 is added to blk_-2668659484325776203 size 3559182
081110 112829 34 INFO dfs.FSNamesystem: BLOCK* NameSystem.addStoredBlock: blockMap updated: 10.251.111.80:50010 is added to blk_-2668659484325776203 size 3559182
081110 112829 34 INFO dfs.FSNamesystem: BLOCK* NameSystem.addStoredBlock: blockMap updated: 10.251.38.214:50010 is added to blk_-2668659484325776203 size 3559182
081110 124153 11377 INFO dfs.DataNode$DataXceiver: 10.251.194.102:50010 Served block blk_-2668659484325776203 to /10.251.194.102
081110 210157 28 INFO dfs.FSNamesystem: BLOCK* NameSystem.delete: blk_-2668659484325776203 is added to invalidSet of 10.251.111.80:50010
081110 210157 28 INFO dfs.FSNamesystem: BLOCK* NameSystem.delete: blk_-2668659484325776203 is added to invalidSet of 10.251.194.102:50010
081110 210157 28 INFO dfs.FSNamesystem: BLOCK* NameSystem.delete: blk_-2668659484325776203 is added to invalidSet of 10.251.38.214:50010
081110 210449 19 INFO dfs.FSDataset: Deleting block blk_-2668659484325776203 file /mnt/hadoop/dfs/data/current/subdir40/blk_-2668659484325776203
081110 210519 19 INFO dfs.FSDataset: Deleting block blk_-2668659484325776203 file /mnt/hadoop/dfs/data/current/subdir3/blk_-2668659484325776203
081110 210527 19 INFO dfs.FSDataset: Deleting block blk_-2668659484325776203 file /mnt/hadoop/dfs/data/current/subdir54/blk_-2668659484325776203
081111 093448 27 INFO dfs.FSNamesystem: BLOCK* NameSystem.allocateBlock: /user/root/rand8/_temporary/_task_200811101024_0015_m_001434_0/part-01434. blk_-7288170140695333183
081111 093449 25558 INFO dfs.DataNode$DataXceiver: Receiving block blk_-7288170140695333183 src: /10.251.75.143:42262 dest: /10.251.75.143:50010
081111 093449 25801 INFO dfs.DataNode$DataXceiver: Receiving block blk_-7288170140695333183 src: /10.251.75.143:45256 dest: /10.251.75.143:50010
081111 093449 25849 INFO dfs.DataNode$DataXceiver: Receiving block blk_-7288170140695333183 src: /10.251.65.203:34731 dest: /10.251.65.203:50010
081111 093524 25559 INFO dfs.DataNode$PacketResponder: PacketResponder 1 for block blk_-7288170140695333183 terminating
081111 093524 25559 INFO dfs.DataNode$PacketResponder: Received block blk_-7288170140695333183 of size 67108864 from /10.251.75.143
081111 093524 25850 INFO dfs.DataNode$PacketResponder: PacketResponder 0 for block blk_-7288170140695333183 terminating
081111 093524 25850 INFO dfs.DataNode$PacketResponder: Received block blk_-7288170140695333183 of size 67108864 from /10.251.65.203
081111 093524 29 INFO dfs.FSNamesystem: BLOCK* NameSystem.addStoredBlock: blockMap updated: 10.251.26.8:50010 is added to blk_-7288170140695333183 size 67108864
081111 093524 31 INFO dfs.FSNamesystem: BLOCK* NameSystem.addStoredBlock: blockMap updated: 10.251.65.203:50010 is added to blk_-7288170140695333183 size 67108864
081111 093526 25802 INFO dfs.DataNode$PacketResponder: PacketResponder 2 for block blk_-7288170140695333183 terminating
081111 093526 25802 INFO dfs.DataNode$PacketResponder: Received block blk_-7288170140695333183 of size 67108864 from /10.251.75.143
081111 093526 26 INFO dfs.FSNamesystem: BLOCK* NameSystem.addStoredBlock: blockMap updated: 10.251.75.143:50010 is added to blk_-7288170140695333183 size 67108864
081111 071737 30 INFO dfs.FSNamesystem: BLOCK* NameSystem.allocateBlock: /user/root/rand6/_temporary/_task_200811101024_0013_m_001058_0/part-01058. blk_-8578929716457285766
081111 071738 22443 INFO dfs.DataNode$DataXceiver: Receiving block blk_-8578929716457285766 src: /10.251.214.112:56146 dest: /10.251.214.112:50010
081111 071738 22845 INFO dfs.DataNode$DataXceiver: Receiving block blk_-8578929716457285766 src: /10.251.91.32:57930 dest: /10.251.91.32:50010
081111 071738 23233 INFO dfs.DataNode$DataXceiver: Receiving block blk_-8578929716457285766 src: /10.251.214.112:60366 dest: /10.251.214.112:50010
081111 071821 22444 INFO dfs.DataNode$PacketResponder: PacketResponder 1 for block blk_-8578929716457285766 terminating
081111 071821 22444 INFO dfs.DataNode$PacketResponder: Received block blk_-8578929716457285766 of size 67108864 from /10.251.214.112
081111 071821 22846 INFO dfs.DataNode$PacketResponder: PacketResponder 0 for block blk_-8578929716457285766 terminating
081111 071821 22846 INFO dfs.DataNode$PacketResponder: Received block blk_-8578929716457285766 of size 67108864 from /10.251.91.32
081111 071821 23234 INFO dfs.DataNode$PacketResponder: PacketResponder 2 for block blk_-8578929716457285766 terminating
081111 071821 23234 INFO dfs.DataNode$PacketResponder: Received block blk_-8578929716457285766 of size 67108864 from /10.251.214.112
081111 071821 28 INFO dfs.FSNamesystem: BLOCK* NameSystem.addStoredBlock: blockMap updated: 10.251.214.112:50010 is added to blk_-8578929716457285766 size 67108864
081111 071821 30 INFO dfs.FSNamesystem: BLOCK* NameSystem.addStoredBlock: blockMap updated: 10.251.91.32:50010 is added to blk_-8578929716457285766 size 67108864
081111 071821 34 INFO dfs.FSNamesystem: BLOCK* NameSystem.addStoredBlock: blockMap updated: 10.251.90.64:50010 is added to blk_-8578929716457285766 size 67108864
081111 085918 27 INFO dfs.FSNamesystem: BLOCK* NameSystem.delete: blk_-8578929716457285766 is added to invalidSet of 10.251.214.112:50010
081111 085918 27 INFO dfs.FSNamesystem: BLOCK* NameSystem.delete: blk_-8578929716457285766 is added to invalidSet of 10.251.90.64:50010
081111 085918 27 INFO dfs.FSNamesystem: BLOCK* NameSystem.delete: blk_-8578929716457285766 is added to invalidSet of 10.251.91.32:50010
081111 090012 19 INFO dfs.FSDataset: Deleting block blk_-8578929716457285766 file /mnt/hadoop/dfs/data/current/subdir40/blk_-8578929716457285766
081111 090031 19 INFO dfs.FSDataset: Deleting block blk_-8578929716457285766 file /mnt/hadoop/dfs/data/current/subdir15/blk_-8578929716457285766
081111 090037 19 INFO dfs.FSDataset: Deleting block blk_-8578929716457285766 file /mnt/hadoop/dfs/data/current/subdir10/blk_-8578929716457285766
081111 105315 35 INFO dfs.FSNamesystem: BLOCK* NameSystem.allocateBlock: /user/root/randtxt9/_temporary/_task_200811101024_0016_m_001768_0/part-01768. blk_-326930659724881596
081111 105316 26993 INFO dfs.DataNode$DataXceiver: Receiving block blk_-326930659724881596 src: /10.251.91.159:47612 dest: /10.251.91.159:50010
081111 105316 27154 INFO dfs.DataNode$DataXceiver: Receiving block blk_-326930659724881596 src: /10.251.30.101:46105 dest: /10.251.30.101:50010
081111 105316 27533 INFO dfs.DataNode$DataXceiver: Receiving block blk_-326930659724881596 src: /10.251.30.101:60604 dest: /10.251.30.101:50010
081111 105357 26994 INFO dfs.DataNode$PacketResponder: PacketResponder 0 for block blk_-326930659724881596 terminating
081111 105357 26994 INFO dfs.DataNode$PacketResponder: Received block blk_-326930659724881596 of size 67108864 from /10.251.91.159
081111 105357 26 INFO dfs.FSNamesystem: BLOCK* NameSystem.addStoredBlock: blockMap updated: 10.251.91.159:50010 is added to blk_-326930659724881596 size 67108864
081111 105357 27156 INFO dfs.DataNode$PacketResponder: PacketResponder 1 for block blk_-326930659724881596 terminating
081111 105357 27156 INFO dfs.DataNode$PacketResponder: Received block blk_-326930659724881596 of size 67108864 from /10.251.30.101
081111 105357 33 INFO dfs.FSNamesystem: BLOCK* NameSystem.addStoredBlock: blockMap updated: 10.251.39.192:50010 is added to blk_-326930659724881596 size 67108864
081111 105358 27535 INFO dfs.DataNode$PacketResponder: PacketResponder 2 for block blk_-326930659724881596 terminating
081111 105358 27535 INFO dfs.DataNode$PacketResponder: Received block blk_-326930659724881596 of size 67108864 from /10.251.30.101
081111 105358 32 INFO dfs.FSNamesystem: BLOCK* NameSystem.addStoredBlock: blockMap updated: 10.251.30.101:50010 is added to blk_-326930659724881596 size 67108864
081111 110445 26 INFO dfs.FSNamesystem: BLOCK* NameSystem.delete: blk_-326930659724881596 is added to invalidSet of 10.251.30.101:50010
081111 110445 26 INFO dfs.FSNamesystem: BLOCK* NameSystem.delete: blk_-326930659724881596 is added to invalidSet of 10.251.39.192:50010
081111 110445 26 INFO dfs.FSNamesystem: BLOCK* NameSystem.delete: blk_-326930659724881596 is added to invalidSet of 10.251.91.159:50010
081111 110518 19 INFO dfs.FSDataset: Deleting block blk_-326930659724881596 file /mnt/hadoop/dfs/data/current/subdir43/blk_-326930659724881596
081111 110540 19 INFO dfs.FSDataset: Deleting block blk_-326930659724881596 file /mnt/hadoop/dfs/data/current/subdir4/blk_-326930659724881596
081111 110605 18 INFO dfs.FSDataset: Deleting block blk_-326930659724881596 file /mnt/hadoop/dfs/data/current/subdir25/blk_-326930659724881596
081111 024435 17782 INFO dfs.DataNode$DataXceiver: Receiving block blk_6639649866187957840 src: /10.251.111.209:56488 dest: /10.251.111.209:50010
081111 024435 17898 INFO dfs.DataNode$DataXceiver: Receiving block blk_6639649866187957840 src: /10.251.194.213:42693 dest: /10.251.194.213:50010
081111 024435 18116 INFO dfs.DataNode$DataXceiver: Receiving block blk_6639649866187957840 src: /10.251.194.213:55084 dest: /10.251.194.213:50010
081111 024435 27 INFO dfs.FSNamesystem: BLOCK* NameSystem.allocateBlock: /user/root/rand4/_temporary/_task_200811101024_0009_m_000448_0/part-00448. blk_6639649866187957840
081111 024520 17783 INFO dfs.DataNode$PacketResponder: PacketResponder 0 for block blk_6639649866187957840 terminating
081111 024520 17783 INFO dfs.DataNode$PacketResponder: Received block blk_6639649866187957840 of size 67108864 from /10.251.111.209
081111 024520 17899 INFO dfs.DataNode$PacketResponder: PacketResponder 2 for block blk_6639649866187957840 terminating
081111 024520 17899 INFO dfs.DataNode$PacketResponder: Received block blk_6639649866187957840 of size 67108864 from /10.251.194.213
081111 024520 18117 INFO dfs.DataNode$PacketResponder: PacketResponder 1 for block blk_6639649866187957840 terminating
081111 024520 18117 INFO dfs.DataNode$PacketResponder: Received block blk_6639649866187957840 of size 67108864 from /10.251.194.213
081111 024520 31 INFO dfs.FSNamesystem: BLOCK* NameSystem.addStoredBlock: blockMap updated: 10.251.194.213:50010 is added to blk_6639649866187957840 size 67108864
081111 024520 34 INFO dfs.FSNamesystem: BLOCK* NameSystem.addStoredBlock: blockMap updated: 10.251.111.209:50010 is added to blk_6639649866187957840 size 67108864
081111 024521 29 INFO dfs.FSNamesystem: BLOCK* NameSystem.addStoredBlock: blockMap updated: 10.250.11.85:50010 is added to blk_6639649866187957840 size 67108864
081111 044308 35 INFO dfs.FSNamesystem: BLOCK* NameSystem.delete: blk_6639649866187957840 is added to invalidSet of 10.250.11.85:50010
081111 044308 35 INFO dfs.FSNamesystem: BLOCK* NameSystem.delete: blk_6639649866187957840 is added to invalidSet of 10.251.111.209:50010
081111 044308 35 INFO dfs.FSNamesystem: BLOCK* NameSystem.delete: blk_6639649866187957840 is added to invalidSet of 10.251.194.213:50010
081111 044754 19 INFO dfs.FSDataset: Deleting block blk_6639649866187957840 file /mnt/hadoop/dfs/data/current/subdir28/blk_6639649866187957840
081111 044816 19 INFO dfs.FSDataset: Deleting block blk_6639649866187957840 file /mnt/hadoop/dfs/data/current/subdir47/blk_6639649866187957840
081111 044911 19 INFO dfs.FSDataset: Deleting block blk_6639649866187957840 file /mnt/hadoop/dfs/data/current/subdir19/blk_6639649866187957840
081111 025329 18049 INFO dfs.DataNode$DataXceiver: Receiving block blk_4821947417576466620 src: /10.251.43.210:48614 dest: /10.251.43.210:50010
081111 025329 18183 INFO dfs.DataNode$DataXceiver: Receiving block blk_4821947417576466620 src: /10.251.43.210:59297 dest: /10.251.43.210:50010
081111 025329 34 INFO dfs.FSNamesystem: BLOCK* NameSystem.allocateBlock: /user/root/rand4/_temporary/_task_200811101024_0009_m_000828_0/part-00828. blk_4821947417576466620
081111 025330 18187 INFO dfs.DataNode$DataXceiver: Receiving block blk_4821947417576466620 src: /10.251.110.196:55704 dest: /10.251.110.196:50010
081111 025418 18052 INFO dfs.DataNode$PacketResponder: PacketResponder 2 for block blk_4821947417576466620 terminating
081111 025418 18052 INFO dfs.DataNode$PacketResponder: Received block blk_4821947417576466620 of size 67108864 from /10.251.43.210
081111 025418 18186 INFO dfs.DataNode$PacketResponder: PacketResponder 1 for block blk_4821947417576466620 terminating
081111 025418 18186 INFO dfs.DataNode$PacketResponder: Received block blk_4821947417576466620 of size 67108864 from /10.251.43.210
081111 025418 18188 INFO dfs.DataNode$PacketResponder: PacketResponder 0 for block blk_4821947417576466620 terminating
